
test.riscv:     file format elf32-littleriscv


Disassembly of section .text.Mtest:

80000000 <Mtest>:
80000000:	cc728013          	addi	x0,x5,-825
80000004:	e1430013          	addi	x0,x6,-492
80000008:	10138013          	addi	x0,x7,257
8000000c:	f7d40013          	addi	x0,x8,-131
80000010:	cde48013          	addi	x0,x9,-802
80000014:	dfc50013          	addi	x0,x10,-516
80000018:	f2158013          	addi	x0,x11,-223
8000001c:	d2460013          	addi	x0,x12,-732
80000020:	ed268013          	addi	x0,x13,-302
80000024:	3e770013          	addi	x0,x14,999
80000028:	c2678013          	addi	x0,x15,-986
8000002c:	1c780013          	addi	x0,x16,455
80000030:	28988013          	addi	x0,x17,649
80000034:	d7390013          	addi	x0,x18,-653
80000038:	f2e98013          	addi	x0,x19,-210
8000003c:	fe3a0013          	addi	x0,x20,-29
80000040:	0aaa8013          	addi	x0,x21,170
80000044:	211b0013          	addi	x0,x22,529
80000048:	3afb8013          	addi	x0,x23,943
8000004c:	23bc0013          	addi	x0,x24,571
80000050:	f13c8013          	addi	x0,x25,-237
80000054:	dedd0013          	addi	x0,x26,-531
80000058:	2f5d8013          	addi	x0,x27,757
8000005c:	f4ae0013          	addi	x0,x28,-182
80000060:	29ee8013          	addi	x0,x29,670
80000064:	0c4f0013          	addi	x0,x30,196
80000068:	e88f8013          	addi	x0,x31,-376
8000006c:	01cf85b3          	add	x11,x31,x28
80000070:	fdf58793          	addi	x15,x11,-33
80000074:	010c0fb3          	add	x31,x24,x16
80000078:	011fc733          	xor	x14,x31,x17
8000007c:	020ffc13          	andi	x24,x31,32
80000080:	009d0ab3          	add	x21,x26,x9
80000084:	01cacb33          	xor	x22,x21,x28
80000088:	00fa86b3          	add	x13,x21,x15
8000008c:	406a8333          	sub	x6,x21,x6
80000090:	00e68e33          	add	x28,x13,x14
80000094:	01ee6fb3          	or	x31,x28,x30
80000098:	026e4413          	xori	x8,x28,38
8000009c:	001e6913          	ori	x18,x28,1
800000a0:	409e0cb3          	sub	x25,x28,x9
800000a4:	00e40333          	add	x6,x8,x14
800000a8:	016304b3          	add	x9,x6,x22
800000ac:	02436d93          	ori	x27,x6,36
800000b0:	01c30b33          	add	x22,x6,x28
800000b4:	00637e33          	and	x28,x6,x6
800000b8:	00737833          	and	x16,x6,x7
800000bc:	00a588b3          	add	x17,x11,x10
800000c0:	41150ab3          	sub	x21,x10,x17
800000c4:	00ef8ab3          	add	x21,x31,x14
800000c8:	015c4333          	xor	x6,x24,x21
800000cc:	015c42b3          	xor	x5,x24,x21
800000d0:	01dc89b3          	add	x19,x25,x29
800000d4:	413f0833          	sub	x16,x30,x19
800000d8:	013f0f33          	add	x30,x30,x19
800000dc:	013f7b33          	and	x22,x30,x19
800000e0:	008b82b3          	add	x5,x23,x8
800000e4:	00540cb3          	add	x25,x8,x5
800000e8:	005407b3          	add	x15,x8,x5
800000ec:	005aeab3          	or	x21,x21,x5
800000f0:	0059f3b3          	and	x7,x19,x5
800000f4:	01dd89b3          	add	x19,x27,x29
800000f8:	0132e533          	or	x10,x5,x19
800000fc:	0132ef33          	or	x30,x5,x19
80000100:	013a6fb3          	or	x31,x20,x19
80000104:	013a7fb3          	and	x31,x20,x19
80000108:	413a0433          	sub	x8,x20,x19
8000010c:	41490d33          	sub	x26,x18,x20
80000110:	00ad4633          	xor	x12,x26,x10
80000114:	40a98633          	sub	x12,x19,x10
80000118:	01067433          	and	x8,x12,x16
8000011c:	01e64e13          	xori	x28,x12,30
80000120:	40e38e33          	sub	x28,x7,x14
80000124:	00ce0e33          	add	x28,x28,x12
80000128:	00ce43b3          	xor	x7,x28,x12
8000012c:	016e0593          	addi	x11,x28,22
80000130:	41b38433          	sub	x8,x7,x27
80000134:	fd846393          	ori	x7,x8,-40
80000138:	fe544e13          	xori	x28,x8,-27
8000013c:	01040e33          	add	x28,x8,x16
80000140:	01246bb3          	or	x23,x8,x18
80000144:	40930633          	sub	x12,x6,x9
80000148:	00664db3          	xor	x27,x12,x6
8000014c:	014647b3          	xor	x15,x12,x20
80000150:	41a60633          	sub	x12,x12,x26
80000154:	00960a93          	addi	x21,x12,9
80000158:	ff966b93          	ori	x23,x12,-7
8000015c:	40f982b3          	sub	x5,x19,x15
80000160:	00580633          	add	x12,x16,x5
80000164:	41cd8833          	sub	x16,x27,x28
80000168:	010e6eb3          	or	x29,x28,x16
8000016c:	01096bb3          	or	x23,x18,x16
80000170:	410a8533          	sub	x10,x21,x16
80000174:	00a87d33          	and	x26,x16,x10
80000178:	00a2cb33          	xor	x22,x5,x10
8000017c:	00ad4c33          	xor	x24,x26,x10
80000180:	40870833          	sub	x16,x14,x8
80000184:	01046833          	or	x16,x8,x16
80000188:	41038fb3          	sub	x31,x7,x16
8000018c:	0108e8b3          	or	x17,x17,x16
80000190:	41088333          	sub	x6,x17,x16
80000194:	41440c33          	sub	x24,x8,x20
80000198:	018a74b3          	and	x9,x20,x24
8000019c:	018a4db3          	xor	x27,x20,x24
800001a0:	018e04b3          	add	x9,x28,x24
800001a4:	41860bb3          	sub	x23,x12,x24
800001a8:	01864533          	xor	x10,x12,x24
800001ac:	01434e33          	xor	x28,x6,x20
800001b0:	005e4e33          	xor	x28,x28,x5
800001b4:	01a74833          	xor	x16,x14,x26
800001b8:	01280933          	add	x18,x16,x18
800001bc:	00187a93          	andi	x21,x16,1
800001c0:	0108cd33          	xor	x26,x17,x16
800001c4:	01cd4833          	xor	x16,x26,x28
800001c8:	01cd6633          	or	x12,x26,x28
800001cc:	41fd0c33          	sub	x24,x26,x31
800001d0:	00f3c333          	xor	x6,x7,x15
800001d4:	006306b3          	add	x13,x6,x6
800001d8:	fef36713          	ori	x14,x6,-17
800001dc:	02637313          	andi	x6,x6,38
800001e0:	ff330893          	addi	x17,x6,-13
800001e4:	00b9ccb3          	xor	x25,x19,x11
800001e8:	40bc8733          	sub	x14,x25,x11
800001ec:	003ced13          	ori	x26,x25,3
800001f0:	fd8ce913          	ori	x18,x25,-40
800001f4:	016c8433          	add	x8,x25,x22
800001f8:	41ec82b3          	sub	x5,x25,x30
800001fc:	013842b3          	xor	x5,x16,x19
80000200:	0059ccb3          	xor	x25,x19,x5
80000204:	005e4db3          	xor	x27,x28,x5
80000208:	01b2f3b3          	and	x7,x5,x27
8000020c:	01bfceb3          	xor	x29,x31,x27
80000210:	00b54333          	xor	x6,x10,x11
80000214:	006d8633          	add	x12,x27,x6
80000218:	00644fb3          	xor	x31,x8,x6
8000021c:	006507b3          	add	x15,x10,x6
80000220:	01644633          	xor	x12,x8,x22
80000224:	00cb7db3          	and	x27,x22,x12
80000228:	40cb0833          	sub	x16,x22,x12
8000022c:	40ca0d33          	sub	x26,x20,x12
80000230:	40cf0bb3          	sub	x23,x30,x12
80000234:	01eecd33          	xor	x26,x29,x30
80000238:	01a88c33          	add	x24,x17,x26
8000023c:	01a87cb3          	and	x25,x16,x26
80000240:	01a84733          	xor	x14,x16,x26
80000244:	41a80333          	sub	x6,x16,x26
80000248:	01ad4433          	xor	x8,x26,x26
8000024c:	0137e633          	or	x12,x15,x19
80000250:	00566cb3          	or	x25,x12,x5
80000254:	01a9e3b3          	or	x7,x19,x26
80000258:	fe838693          	addi	x13,x7,-24
8000025c:	01f3f693          	andi	x13,x7,31
80000260:	0165edb3          	or	x27,x11,x22
80000264:	00fdfa33          	and	x20,x27,x15
80000268:	414d8733          	sub	x14,x27,x20
8000026c:	fdfd8b93          	addi	x23,x27,-33
80000270:	014de733          	or	x14,x27,x20
80000274:	01b70b33          	add	x22,x14,x27
80000278:	01a74393          	xori	x7,x14,26
8000027c:	02777c13          	andi	x24,x14,39
80000280:	ff470893          	addi	x17,x14,-12
80000284:	00c6ecb3          	or	x25,x13,x12
80000288:	fdbcc393          	xori	x7,x25,-37
8000028c:	40fc88b3          	sub	x17,x25,x15
80000290:	fefc8f93          	addi	x31,x25,-17
80000294:	01dc8733          	add	x14,x25,x29
80000298:	fe5ceb13          	ori	x22,x25,-27
8000029c:	005e66b3          	or	x13,x28,x5
800002a0:	00d488b3          	add	x17,x9,x13
800002a4:	009463b3          	or	x7,x8,x9
800002a8:	40760fb3          	sub	x31,x12,x7
800002ac:	00766633          	or	x12,x12,x7
800002b0:	0128e7b3          	or	x15,x17,x18
800002b4:	00f602b3          	add	x5,x12,x15
800002b8:	00f60cb3          	add	x25,x12,x15
800002bc:	00f9e633          	or	x12,x19,x15
800002c0:	00adea33          	or	x20,x27,x10
800002c4:	014684b3          	add	x9,x13,x20
800002c8:	41468733          	sub	x14,x13,x20
800002cc:	014a84b3          	add	x9,x21,x20
800002d0:	014af333          	and	x6,x21,x20
800002d4:	0082ebb3          	or	x23,x5,x8
800002d8:	017408b3          	add	x17,x8,x23
800002dc:	0179ea33          	or	x20,x19,x23
800002e0:	01768533          	add	x10,x13,x23
800002e4:	0176fa33          	and	x20,x13,x23
800002e8:	01786b33          	or	x22,x16,x23
800002ec:	01a973b3          	and	x7,x18,x26
800002f0:	0193fd33          	and	x26,x7,x25
800002f4:	01bafb33          	and	x22,x21,x27
800002f8:	ff7b7a93          	andi	x21,x22,-9
800002fc:	014b6db3          	or	x27,x22,x20
80000300:	01fe7333          	and	x6,x28,x31
80000304:	fdd37493          	andi	x9,x6,-35
80000308:	00537fb3          	and	x31,x6,x5
8000030c:	00b36733          	or	x14,x6,x11
80000310:	01a777b3          	and	x15,x14,x26
80000314:	01e7f493          	andi	x9,x15,30
80000318:	41878633          	sub	x12,x15,x24
8000031c:	01178313          	addi	x6,x15,17
80000320:	41c78cb3          	sub	x25,x15,x28
80000324:	00cc75b3          	and	x11,x24,x12
80000328:	00058d93          	addi	x27,x11,0
8000032c:	0085e8b3          	or	x17,x11,x8
80000330:	00858533          	add	x10,x11,x8
80000334:	00b5f433          	and	x8,x11,x11
80000338:	00e58eb3          	add	x29,x11,x14
8000033c:	012f79b3          	and	x19,x30,x18
80000340:	0132ee33          	or	x28,x5,x19
80000344:	012ef5b3          	and	x11,x29,x18
80000348:	00ba6f33          	or	x30,x20,x11
8000034c:	00ba0db3          	add	x27,x20,x11
80000350:	013f7cb3          	and	x25,x30,x19
80000354:	0199fe33          	and	x28,x19,x25
80000358:	019bf633          	and	x12,x23,x25
8000035c:	019965b3          	or	x11,x18,x25
80000360:	01f673b3          	and	x7,x12,x31
80000364:	007a8eb3          	add	x29,x21,x7
80000368:	0073eeb3          	or	x29,x7,x7
8000036c:	0073fab3          	and	x21,x7,x7
80000370:	0076f4b3          	and	x9,x13,x7
80000374:	0066f8b3          	and	x17,x13,x6
80000378:	01130533          	add	x10,x6,x17
8000037c:	0119e8b3          	or	x17,x19,x17
80000380:	0119e7b3          	or	x15,x19,x17
80000384:	41198433          	sub	x8,x19,x17
80000388:	011988b3          	add	x17,x19,x17
8000038c:	ffc60793          	addi	x15,x12,-4
80000390:	0157e7b3          	or	x15,x15,x21
80000394:	ffb58f13          	addi	x30,x11,-5
80000398:	002f0793          	addi	x15,x30,2
8000039c:	018f66b3          	or	x13,x30,x24
800003a0:	023b8f13          	addi	x30,x23,35
800003a4:	ff7f4c93          	xori	x25,x30,-9
800003a8:	fdef6993          	ori	x19,x30,-34
800003ac:	00cf6d93          	ori	x27,x30,12
800003b0:	006f8593          	addi	x11,x31,6
800003b4:	fec58b93          	addi	x23,x11,-20
800003b8:	fdf5ff93          	andi	x31,x11,-33
800003bc:	fe55ea93          	ori	x21,x11,-27
800003c0:	fdc5e893          	ori	x17,x11,-36
800003c4:	ff228693          	addi	x13,x5,-14
800003c8:	ff96fb13          	andi	x22,x13,-7
800003cc:	0196f8b3          	and	x17,x13,x25
800003d0:	0136e4b3          	or	x9,x13,x19
800003d4:	01d6e4b3          	or	x9,x13,x29
800003d8:	ff36c693          	xori	x13,x13,-13
800003dc:	fefb4d13          	xori	x26,x22,-17
800003e0:	fe8d0f93          	addi	x31,x26,-24
800003e4:	00ce4d93          	xori	x27,x28,12
800003e8:	00fdf8b3          	and	x17,x27,x15
800003ec:	005d88b3          	add	x17,x27,x5
800003f0:	fed6cd93          	xori	x27,x13,-19
800003f4:	fe0dce13          	xori	x28,x27,-32
800003f8:	008de633          	or	x12,x27,x8
800003fc:	ffadf813          	andi	x16,x27,-6
80000400:	ff574293          	xori	x5,x14,-11
80000404:	41e28bb3          	sub	x23,x5,x30
80000408:	0122f3b3          	and	x7,x5,x18
8000040c:	ffc2fb93          	andi	x23,x5,-4
80000410:	ffb2f813          	andi	x16,x5,-5
80000414:	ffca4293          	xori	x5,x20,-4
80000418:	40f28833          	sub	x16,x5,x15
8000041c:	00e2e813          	ori	x16,x5,14
80000420:	0122e613          	ori	x12,x5,18
80000424:	40f28f33          	sub	x30,x5,x15
80000428:	fe72f293          	andi	x5,x5,-25
8000042c:	ff22e793          	ori	x15,x5,-14
80000430:	01078433          	add	x8,x15,x16
80000434:	0138eb13          	ori	x22,x17,19
80000438:	012b0c33          	add	x24,x22,x18
8000043c:	feab0c13          	addi	x24,x22,-22
80000440:	ff6a6b93          	ori	x23,x20,-10
80000444:	018b8693          	addi	x13,x23,24
80000448:	40fb8833          	sub	x16,x23,x15
8000044c:	00cb8eb3          	add	x29,x23,x12
80000450:	fdb2e393          	ori	x7,x5,-37
80000454:	0143cfb3          	xor	x31,x7,x20
80000458:	00a3c2b3          	xor	x5,x7,x10
8000045c:	0123c4b3          	xor	x9,x7,x18
80000460:	0153e833          	or	x16,x7,x21
80000464:	fff5e993          	ori	x19,x11,-1
80000468:	41e98b33          	sub	x22,x19,x30
8000046c:	0089fd13          	andi	x26,x19,8
80000470:	00d98833          	add	x16,x19,x13
80000474:	fe39c493          	xori	x9,x19,-29
80000478:	0179c3b3          	xor	x7,x19,x23
8000047c:	fe857293          	andi	x5,x10,-24
80000480:	0152e7b3          	or	x15,x5,x21
80000484:	00537e13          	andi	x28,x6,5
80000488:	012e4ab3          	xor	x21,x28,x18
8000048c:	009e0fb3          	add	x31,x28,x9
80000490:	02457393          	andi	x7,x10,36
80000494:	0173c9b3          	xor	x19,x7,x23
80000498:	ff13ef93          	ori	x31,x7,-15
8000049c:	0123e413          	ori	x8,x7,18
800004a0:	01acf813          	andi	x16,x25,26
800004a4:	01f848b3          	xor	x17,x16,x31
800004a8:	01586db3          	or	x27,x16,x21
800004ac:	00886713          	ori	x14,x16,8
800004b0:	00b84a13          	xori	x20,x16,11
800004b4:	01dd7e13          	andi	x28,x26,29
800004b8:	01fe0e93          	addi	x29,x28,31
800004bc:	011e06b3          	add	x13,x28,x17
800004c0:	010e4e13          	xori	x28,x28,16
800004c4:	00be4833          	xor	x16,x28,x11
800004c8:	fd8e0913          	addi	x18,x28,-40
800004cc:	00fc0333          	add	x6,x24,x15
800004d0:	41730fb3          	sub	x31,x6,x23
800004d4:	00868a33          	add	x20,x13,x8
800004d8:	020a0593          	addi	x11,x20,32
800004dc:	008a06b3          	add	x13,x20,x8
800004e0:	010386b3          	add	x13,x7,x16
800004e4:	0076eb33          	or	x22,x13,x7
800004e8:	ff36c493          	xori	x9,x13,-13
800004ec:	0266eb93          	ori	x23,x13,38
800004f0:	01fc8ab3          	add	x21,x25,x31
800004f4:	005acab3          	xor	x21,x21,x5
800004f8:	01bac993          	xori	x19,x21,27
800004fc:	01eafdb3          	and	x27,x21,x30
80000500:	40ba8733          	sub	x14,x21,x11
80000504:	005805b3          	add	x11,x16,x5
80000508:	0085c633          	xor	x12,x11,x8
8000050c:	0095e8b3          	or	x17,x11,x9
80000510:	01a5c4b3          	xor	x9,x11,x26
80000514:	0205ec13          	ori	x24,x11,32
80000518:	02258593          	addi	x11,x11,34
8000051c:	019b8eb3          	add	x29,x23,x25
80000520:	01d9f5b3          	and	x11,x19,x29
80000524:	01678533          	add	x10,x15,x22
80000528:	00a2f4b3          	and	x9,x5,x10
8000052c:	00ae6633          	or	x12,x28,x10
80000530:	01fa8b33          	add	x22,x21,x31
80000534:	016ffcb3          	and	x25,x31,x22
80000538:	416f8f33          	sub	x30,x31,x22
8000053c:	0169c9b3          	xor	x19,x19,x22
80000540:	01ba0fb3          	add	x31,x20,x27
80000544:	01fdccb3          	xor	x25,x27,x31
80000548:	01fd8c33          	add	x24,x27,x31
8000054c:	01f57ab3          	and	x21,x10,x31
80000550:	01f86533          	or	x10,x16,x31
80000554:	01b78f33          	add	x30,x15,x27
80000558:	01edc833          	xor	x16,x27,x30
8000055c:	01e3ebb3          	or	x23,x7,x30
80000560:	01ecfeb3          	and	x29,x25,x30
80000564:	01e54ab3          	xor	x21,x10,x30
80000568:	01e948b3          	xor	x17,x18,x30
8000056c:	416384b3          	sub	x9,x7,x22
80000570:	fea4c593          	xori	x11,x9,-22
80000574:	413703b3          	sub	x7,x14,x19
80000578:	01038633          	add	x12,x7,x16
8000057c:	fd83cc13          	xori	x24,x7,-40
80000580:	41780eb3          	sub	x29,x16,x23
80000584:	010e8533          	add	x10,x29,x16
80000588:	010ee433          	or	x8,x29,x16
8000058c:	007efcb3          	and	x25,x29,x7
80000590:	40dc8a33          	sub	x20,x25,x13
80000594:	021a6613          	ori	x12,x20,33
80000598:	00ca6933          	or	x18,x20,x12
8000059c:	016a0313          	addi	x6,x20,22
800005a0:	412a0833          	sub	x16,x20,x18
800005a4:	41750eb3          	sub	x29,x10,x23
800005a8:	416e8533          	sub	x10,x29,x22
800005ac:	ff1ec313          	xori	x6,x29,-15
800005b0:	014e83b3          	add	x7,x29,x20
800005b4:	011ecdb3          	xor	x27,x29,x17
800005b8:	ff4ef393          	andi	x7,x29,-12
800005bc:	41328ab3          	sub	x21,x5,x19
800005c0:	01598db3          	add	x27,x19,x21
800005c4:	40698ab3          	sub	x21,x19,x6
800005c8:	01574b33          	xor	x22,x14,x21
800005cc:	01574f33          	xor	x30,x14,x21
800005d0:	40ef0933          	sub	x18,x30,x14
800005d4:	0126e533          	or	x10,x13,x18
800005d8:	01268933          	add	x18,x13,x18
800005dc:	01240b33          	add	x22,x8,x18
800005e0:	41b78bb3          	sub	x23,x15,x27
800005e4:	417d8f33          	sub	x30,x27,x23
800005e8:	41740ab3          	sub	x21,x8,x23
800005ec:	017f8333          	add	x6,x31,x23
800005f0:	017e6c33          	or	x24,x28,x23
800005f4:	406f8833          	sub	x16,x31,x6
800005f8:	01074b33          	xor	x22,x14,x16
800005fc:	01077cb3          	and	x25,x14,x16
80000600:	01064f33          	xor	x30,x12,x16
80000604:	0103cb33          	xor	x22,x7,x16
80000608:	01038533          	add	x10,x7,x16
8000060c:	0114c633          	xor	x12,x9,x17
80000610:	00d607b3          	add	x15,x12,x13
80000614:	01c5cfb3          	xor	x31,x11,x28
80000618:	ff3fcd13          	xori	x26,x31,-13
8000061c:	00affcb3          	and	x25,x31,x10
80000620:	009e4a33          	xor	x20,x28,x9
80000624:	01ba0333          	add	x6,x20,x27
80000628:	407a07b3          	sub	x15,x20,x7
8000062c:	00ea75b3          	and	x11,x20,x14
80000630:	00fbc433          	xor	x8,x23,x15
80000634:	fe444d93          	xori	x27,x8,-28
80000638:	00646913          	ori	x18,x8,6
8000063c:	40b409b3          	sub	x19,x8,x11
80000640:	01a404b3          	add	x9,x8,x26
80000644:	00cacbb3          	xor	x23,x21,x12
80000648:	fe1b8c13          	addi	x24,x23,-31
8000064c:	417b88b3          	sub	x17,x23,x23
80000650:	018bc493          	xori	x9,x23,24
80000654:	00fbcdb3          	xor	x27,x23,x15
80000658:	ff3bed93          	ori	x27,x23,-13
8000065c:	011c43b3          	xor	x7,x24,x17
80000660:	0075f4b3          	and	x9,x11,x7
80000664:	017d4fb3          	xor	x31,x26,x23
80000668:	01f3c733          	xor	x14,x7,x31
8000066c:	01fe84b3          	add	x9,x29,x31
80000670:	0096c333          	xor	x6,x13,x9
80000674:	0063f533          	and	x10,x7,x6
80000678:	0063f533          	and	x10,x7,x6
8000067c:	0063ceb3          	xor	x29,x7,x6
80000680:	0166c8b3          	xor	x17,x13,x22
80000684:	411f09b3          	sub	x19,x30,x17
80000688:	0119c2b3          	xor	x5,x19,x17
8000068c:	0113c433          	xor	x8,x7,x17
80000690:	011cce33          	xor	x28,x25,x17
80000694:	01984db3          	xor	x27,x16,x25
80000698:	01bcc933          	xor	x18,x25,x27
8000069c:	01bc8533          	add	x10,x25,x27
800006a0:	01bc0833          	add	x16,x24,x27
800006a4:	01beccb3          	xor	x25,x29,x27
800006a8:	41b90eb3          	sub	x29,x18,x27
800006ac:	016fe533          	or	x10,x31,x22
800006b0:	41450b33          	sub	x22,x10,x20
800006b4:	00c4e733          	or	x14,x9,x12
800006b8:	40970333          	sub	x6,x14,x9
800006bc:	01f76933          	or	x18,x14,x31
800006c0:	010d6ab3          	or	x21,x26,x16
800006c4:	007af313          	andi	x6,x21,7
800006c8:	007a8f93          	addi	x31,x21,7
800006cc:	ff8a8413          	addi	x8,x21,-8
800006d0:	00b76c33          	or	x24,x14,x11
800006d4:	00ac4e33          	xor	x28,x24,x10
800006d8:	417c0733          	sub	x14,x24,x23
800006dc:	005c0b33          	add	x22,x24,x5
800006e0:	00cc4eb3          	xor	x29,x24,x12
800006e4:	00f9ef33          	or	x30,x19,x15
800006e8:	01bf0293          	addi	x5,x30,27
800006ec:	010f7ab3          	and	x21,x30,x16
800006f0:	40ff0933          	sub	x18,x30,x15
800006f4:	002f4713          	xori	x14,x30,2
800006f8:	014f44b3          	xor	x9,x30,x20
800006fc:	01466933          	or	x18,x12,x20
80000700:	0122cb33          	xor	x22,x5,x18
80000704:	00ce6d33          	or	x26,x28,x12
80000708:	41a607b3          	sub	x15,x12,x26
8000070c:	41ae0e33          	sub	x28,x28,x26
80000710:	019e6a33          	or	x20,x28,x25
80000714:	014ce5b3          	or	x11,x25,x20
80000718:	014b0a33          	add	x20,x22,x20
8000071c:	014b7d33          	and	x26,x22,x20
80000720:	0189e933          	or	x18,x19,x24
80000724:	0129c6b3          	xor	x13,x19,x18
80000728:	0123f3b3          	and	x7,x7,x18
8000072c:	412384b3          	sub	x9,x7,x18
80000730:	0123ffb3          	and	x31,x7,x18
80000734:	01aee633          	or	x12,x29,x26
80000738:	00c409b3          	add	x19,x8,x12
8000073c:	00caedb3          	or	x27,x21,x12
80000740:	00c54d33          	xor	x26,x10,x12
80000744:	00cd7fb3          	and	x31,x26,x12
80000748:	00cd0433          	add	x8,x26,x12
8000074c:	012ef7b3          	and	x15,x29,x18
80000750:	0177e593          	ori	x11,x15,23
80000754:	0066fab3          	and	x21,x13,x6
80000758:	01da8f93          	addi	x31,x21,29
8000075c:	01aaec33          	or	x24,x21,x26
80000760:	0182f8b3          	and	x17,x5,x24
80000764:	01e8ef33          	or	x30,x17,x30
80000768:	01b8f713          	andi	x14,x17,27
8000076c:	fe188993          	addi	x19,x17,-31
80000770:	0174fcb3          	and	x25,x9,x23
80000774:	ff2c8513          	addi	x10,x25,-14
80000778:	017cce33          	xor	x28,x25,x23
8000077c:	fefcf313          	andi	x6,x25,-17
80000780:	00dcf4b3          	and	x9,x25,x13
80000784:	00e97eb3          	and	x29,x18,x14
80000788:	019ecc33          	xor	x24,x29,x25
8000078c:	006eca33          	xor	x20,x29,x6
80000790:	007ef533          	and	x10,x29,x7
80000794:	00eef433          	and	x8,x29,x14
80000798:	00bec5b3          	xor	x11,x29,x11
8000079c:	0152f333          	and	x6,x5,x21
800007a0:	006c7f33          	and	x30,x24,x6
800007a4:	016ef3b3          	and	x7,x29,x22
800007a8:	007b4633          	xor	x12,x22,x7
800007ac:	407b8a33          	sub	x20,x23,x7
800007b0:	00bffe33          	and	x28,x31,x11
800007b4:	01c2ff33          	and	x30,x5,x28
800007b8:	01ce0333          	add	x6,x28,x28
800007bc:	01ca0ab3          	add	x21,x20,x28
800007c0:	011ffab3          	and	x21,x31,x17
800007c4:	415485b3          	sub	x11,x9,x21
800007c8:	0154ccb3          	xor	x25,x9,x21
800007cc:	01564a33          	xor	x20,x12,x21
800007d0:	015ef433          	and	x8,x29,x21
800007d4:	010cf933          	and	x18,x25,x16
800007d8:	012806b3          	add	x13,x16,x18
800007dc:	01284333          	xor	x6,x16,x18
800007e0:	01286833          	or	x16,x16,x18
800007e4:	01267e33          	and	x28,x12,x18
800007e8:	012d02b3          	add	x5,x26,x18
800007ec:	ff5d8913          	addi	x18,x27,-11
800007f0:	412906b3          	sub	x13,x18,x18
800007f4:	fe230893          	addi	x17,x6,-30
800007f8:	0288c713          	xori	x14,x17,40
800007fc:	fe688a93          	addi	x21,x17,-26
80000800:	fdbe8d93          	addi	x27,x29,-37
80000804:	00dd8b33          	add	x22,x27,x13
80000808:	01fdf933          	and	x18,x27,x31
8000080c:	017dc933          	xor	x18,x27,x23
80000810:	00fc8b93          	addi	x23,x25,15
80000814:	019bc633          	xor	x12,x23,x25
80000818:	40ab86b3          	sub	x13,x23,x10
8000081c:	019be733          	or	x14,x23,x25
80000820:	40bb8eb3          	sub	x29,x23,x11
80000824:	005a0993          	addi	x19,x20,5
80000828:	fe99c413          	xori	x8,x19,-23
8000082c:	ffd9ff13          	andi	x30,x19,-3
80000830:	00898793          	addi	x15,x19,8
80000834:	0079cd33          	xor	x26,x19,x7
80000838:	0169e833          	or	x16,x19,x22
8000083c:	fde6cd93          	xori	x27,x13,-34
80000840:	008dcd93          	xori	x27,x27,8
80000844:	01be4413          	xori	x8,x28,27
80000848:	00744513          	xori	x10,x8,7
8000084c:	01e47993          	andi	x19,x8,30
80000850:	027c4513          	xori	x10,x24,39
80000854:	00c54613          	xori	x12,x10,12
80000858:	01b50d33          	add	x26,x10,x27
8000085c:	410506b3          	sub	x13,x10,x16
80000860:	025e4a93          	xori	x21,x28,37
80000864:	008acc93          	xori	x25,x21,8
80000868:	01dacab3          	xor	x21,x21,x29
8000086c:	fdcafb13          	andi	x22,x21,-36
80000870:	414a8533          	sub	x10,x21,x20
80000874:	0265c513          	xori	x10,x11,38
80000878:	00454d93          	xori	x27,x10,4
8000087c:	40a50833          	sub	x16,x10,x10
80000880:	02050513          	addi	x10,x10,32
80000884:	fdf57493          	andi	x9,x10,-33
80000888:	ff054413          	xori	x8,x10,-16
8000088c:	fdc66293          	ori	x5,x12,-36
80000890:	00e2e513          	ori	x10,x5,14
80000894:	016eef13          	ori	x30,x29,22
80000898:	00bf7eb3          	and	x29,x30,x11
8000089c:	405f0f33          	sub	x30,x30,x5
800008a0:	ff7c6393          	ori	x7,x24,-9
800008a4:	41938ab3          	sub	x21,x7,x25
800008a8:	40d38e33          	sub	x28,x7,x13
800008ac:	fff3c913          	xori	x18,x7,-1
800008b0:	00cb6913          	ori	x18,x22,12
800008b4:	ff990313          	addi	x6,x18,-7
800008b8:	01b96433          	or	x8,x18,x27
800008bc:	fe790f93          	addi	x31,x18,-25
800008c0:	fd890c13          	addi	x24,x18,-40
800008c4:	fee86613          	ori	x12,x16,-18
800008c8:	ffe60413          	addi	x8,x12,-2
800008cc:	fe864513          	xori	x10,x12,-24
800008d0:	00567d33          	and	x26,x12,x5
800008d4:	00f64f33          	xor	x30,x12,x15
800008d8:	00a60933          	add	x18,x12,x10
800008dc:	ff34f713          	andi	x14,x9,-13
800008e0:	01a74913          	xori	x18,x14,26
800008e4:	ff3afd93          	andi	x27,x21,-13
800008e8:	40dd82b3          	sub	x5,x27,x13
800008ec:	028dfd93          	andi	x27,x27,40
800008f0:	fdaff513          	andi	x10,x31,-38
800008f4:	01c50ab3          	add	x21,x10,x28
800008f8:	40850db3          	sub	x27,x10,x8
800008fc:	01750713          	addi	x14,x10,23
80000900:	ff75f393          	andi	x7,x11,-9
80000904:	00d385b3          	add	x11,x7,x13
80000908:	40a38e33          	sub	x28,x7,x10
8000090c:	00f3fe33          	and	x28,x7,x15
80000910:	0193fcb3          	and	x25,x7,x25
80000914:	022a7413          	andi	x8,x20,34
80000918:	01a445b3          	xor	x11,x8,x26
8000091c:	01644e93          	xori	x29,x8,22
80000920:	fe047b93          	andi	x23,x8,-32
80000924:	fdd40813          	addi	x16,x8,-35
80000928:	40c40b33          	sub	x22,x8,x12
8000092c:	d4f28013          	addi	x0,x5,-689
80000930:	f2030013          	addi	x0,x6,-224
80000934:	2bd38013          	addi	x0,x7,701
80000938:	f5c40013          	addi	x0,x8,-164
8000093c:	1ea48013          	addi	x0,x9,490
80000940:	30150013          	addi	x0,x10,769
80000944:	05f58013          	addi	x0,x11,95
80000948:	e6c60013          	addi	x0,x12,-404
8000094c:	ceb68013          	addi	x0,x13,-789
80000950:	23170013          	addi	x0,x14,561
80000954:	34178013          	addi	x0,x15,833
80000958:	0de80013          	addi	x0,x16,222
8000095c:	d6788013          	addi	x0,x17,-665
80000960:	20090013          	addi	x0,x18,512
80000964:	ead98013          	addi	x0,x19,-339
80000968:	254a0013          	addi	x0,x20,596
8000096c:	077a8013          	addi	x0,x21,119
80000970:	1e8b0013          	addi	x0,x22,488
80000974:	ffeb8013          	addi	x0,x23,-2
80000978:	e14c0013          	addi	x0,x24,-492
8000097c:	1d9c8013          	addi	x0,x25,473
80000980:	cc9d0013          	addi	x0,x26,-823
80000984:	304d8013          	addi	x0,x27,772
80000988:	302e0013          	addi	x0,x28,770
8000098c:	167e8013          	addi	x0,x29,359
80000990:	dcdf0013          	addi	x0,x30,-563
80000994:	d53f8013          	addi	x0,x31,-685
80000998:	01a38f33          	add	x30,x7,x26
8000099c:	ffaf0f13          	addi	x30,x30,-6
800009a0:	01d78a33          	add	x20,x15,x29
800009a4:	feaa6693          	ori	x13,x20,-22
800009a8:	feea6b93          	ori	x23,x20,-18
800009ac:	01658d33          	add	x26,x11,x22
800009b0:	417d0db3          	sub	x27,x26,x23
800009b4:	01bd6f33          	or	x30,x26,x27
800009b8:	010d0633          	add	x12,x26,x16
800009bc:	00fe8c33          	add	x24,x29,x15
800009c0:	feec4f93          	xori	x31,x24,-18
800009c4:	01fc7793          	andi	x15,x24,31
800009c8:	005c0933          	add	x18,x24,x5
800009cc:	ff4c0a93          	addi	x21,x24,-12
800009d0:	00ef0933          	add	x18,x30,x14
800009d4:	01590ab3          	add	x21,x18,x21
800009d8:	00a947b3          	xor	x15,x18,x10
800009dc:	01597313          	andi	x6,x18,21
800009e0:	00f94613          	xori	x12,x18,15
800009e4:	ffb94613          	xori	x12,x18,-5
800009e8:	00e589b3          	add	x19,x11,x14
800009ec:	01360eb3          	add	x29,x12,x19
800009f0:	01f90eb3          	add	x29,x18,x31
800009f4:	01d50d33          	add	x26,x10,x29
800009f8:	01d563b3          	or	x7,x10,x29
800009fc:	00f50eb3          	add	x29,x10,x15
80000a00:	01dac433          	xor	x8,x21,x29
80000a04:	41da8b33          	sub	x22,x21,x29
80000a08:	01dafc33          	and	x24,x21,x29
80000a0c:	01950bb3          	add	x23,x10,x25
80000a10:	017eeab3          	or	x21,x29,x23
80000a14:	017ae533          	or	x10,x21,x23
80000a18:	017a87b3          	add	x15,x21,x23
80000a1c:	417a8f33          	sub	x30,x21,x23
80000a20:	01e70b33          	add	x22,x14,x30
80000a24:	016cf933          	and	x18,x25,x22
80000a28:	016ce533          	or	x10,x25,x22
80000a2c:	416c88b3          	sub	x17,x25,x22
80000a30:	016ccc33          	xor	x24,x25,x22
80000a34:	016ccd33          	xor	x26,x25,x22
80000a38:	410988b3          	sub	x17,x19,x16
80000a3c:	ff88c713          	xori	x14,x17,-8
80000a40:	41e68d33          	sub	x26,x13,x30
80000a44:	013d4eb3          	xor	x29,x26,x19
80000a48:	010d6e33          	or	x28,x26,x16
80000a4c:	416b8d33          	sub	x26,x23,x22
80000a50:	01cd7393          	andi	x7,x26,28
80000a54:	406d0f33          	sub	x30,x26,x6
80000a58:	011d0633          	add	x12,x26,x17
80000a5c:	41de07b3          	sub	x15,x28,x29
80000a60:	01778713          	addi	x14,x15,23
80000a64:	ffc78693          	addi	x13,x15,-4
80000a68:	ff07ea93          	ori	x21,x15,-16
80000a6c:	40d78533          	sub	x10,x15,x13
80000a70:	405b0633          	sub	x12,x22,x5
80000a74:	00860833          	add	x16,x12,x8
80000a78:	41660eb3          	sub	x29,x12,x22
80000a7c:	01267a33          	and	x20,x12,x18
80000a80:	00e64793          	xori	x15,x12,14
80000a84:	41460c33          	sub	x24,x12,x20
80000a88:	40828533          	sub	x10,x5,x8
80000a8c:	00a446b3          	xor	x13,x8,x10
80000a90:	40bd8cb3          	sub	x25,x27,x11
80000a94:	019585b3          	add	x11,x11,x25
80000a98:	019b78b3          	and	x17,x22,x25
80000a9c:	414f8733          	sub	x14,x31,x20
80000aa0:	00e70433          	add	x8,x14,x14
80000aa4:	00e765b3          	or	x11,x14,x14
80000aa8:	40e706b3          	sub	x13,x14,x14
80000aac:	40b38833          	sub	x16,x7,x11
80000ab0:	010ce6b3          	or	x13,x25,x16
80000ab4:	010ccf33          	xor	x30,x25,x16
80000ab8:	010cc6b3          	xor	x13,x25,x16
80000abc:	010ce2b3          	or	x5,x25,x16
80000ac0:	406a0fb3          	sub	x31,x20,x6
80000ac4:	41fc85b3          	sub	x11,x25,x31
80000ac8:	01f8efb3          	or	x31,x17,x31
80000acc:	01f889b3          	add	x19,x17,x31
80000ad0:	01facfb3          	xor	x31,x21,x31
80000ad4:	01fa86b3          	add	x13,x21,x31
80000ad8:	00954db3          	xor	x27,x10,x9
80000adc:	018de313          	ori	x6,x27,24
80000ae0:	005946b3          	xor	x13,x18,x5
80000ae4:	fe06c613          	xori	x12,x13,-32
80000ae8:	0286fa13          	andi	x20,x13,40
80000aec:	00734bb3          	xor	x23,x6,x7
80000af0:	40bb8e33          	sub	x28,x23,x11
80000af4:	409b8c33          	sub	x24,x23,x9
80000af8:	017beb93          	ori	x23,x23,23
80000afc:	01134733          	xor	x14,x6,x17
80000b00:	00570a33          	add	x20,x14,x5
80000b04:	009708b3          	add	x17,x14,x9
80000b08:	01174b33          	xor	x22,x14,x17
80000b0c:	01d76b33          	or	x22,x14,x29
80000b10:	005a4e33          	xor	x28,x20,x5
80000b14:	fdce0893          	addi	x17,x28,-36
80000b18:	fefe6413          	ori	x8,x28,-17
80000b1c:	007e0513          	addi	x10,x28,7
80000b20:	fede7993          	andi	x19,x28,-19
80000b24:	019e6d13          	ori	x26,x28,25
80000b28:	0122c3b3          	xor	x7,x5,x18
80000b2c:	40790b33          	sub	x22,x18,x7
80000b30:	00aa4bb3          	xor	x23,x20,x10
80000b34:	017f49b3          	xor	x19,x30,x23
80000b38:	0179c4b3          	xor	x9,x19,x23
80000b3c:	01dbc433          	xor	x8,x23,x29
80000b40:	008efa33          	and	x20,x29,x8
80000b44:	0089efb3          	or	x31,x19,x8
80000b48:	00898933          	add	x18,x19,x8
80000b4c:	005dc733          	xor	x14,x27,x5
80000b50:	00ee7933          	and	x18,x28,x14
80000b54:	00e683b3          	add	x7,x13,x14
80000b58:	00e87733          	and	x14,x16,x14
80000b5c:	00e7e3b3          	or	x7,x15,x14
80000b60:	009ac433          	xor	x8,x21,x9
80000b64:	008483b3          	add	x7,x9,x8
80000b68:	0084fa33          	and	x20,x9,x8
80000b6c:	0084ecb3          	or	x25,x9,x8
80000b70:	408484b3          	sub	x9,x9,x8
80000b74:	00848533          	add	x10,x9,x8
80000b78:	00f6e633          	or	x12,x13,x15
80000b7c:	00f64593          	xori	x11,x12,15
80000b80:	01a76db3          	or	x27,x14,x26
80000b84:	005dcb33          	xor	x22,x27,x5
80000b88:	016d8bb3          	add	x23,x27,x22
80000b8c:	01a2eeb3          	or	x29,x5,x26
80000b90:	00eec593          	xori	x11,x29,14
80000b94:	ffbec993          	xori	x19,x29,-5
80000b98:	026e8513          	addi	x10,x29,38
80000b9c:	00646cb3          	or	x25,x8,x6
80000ba0:	019cf633          	and	x12,x25,x25
80000ba4:	010cf8b3          	and	x17,x25,x16
80000ba8:	ff6cfb93          	andi	x23,x25,-10
80000bac:	00ecc993          	xori	x19,x25,14
80000bb0:	00646bb3          	or	x23,x8,x6
80000bb4:	015b8c13          	addi	x24,x23,21
80000bb8:	00fb8d93          	addi	x27,x23,15
80000bbc:	013bc6b3          	xor	x13,x23,x19
80000bc0:	00ebcc33          	xor	x24,x23,x14
80000bc4:	00cbf733          	and	x14,x23,x12
80000bc8:	01bbe8b3          	or	x17,x23,x27
80000bcc:	01176733          	or	x14,x14,x17
80000bd0:	00b96a33          	or	x20,x18,x11
80000bd4:	0145eab3          	or	x21,x11,x20
80000bd8:	0145fa33          	and	x20,x11,x20
80000bdc:	01ca6833          	or	x16,x20,x28
80000be0:	010e0db3          	add	x27,x28,x16
80000be4:	01074e33          	xor	x28,x14,x16
80000be8:	01070bb3          	add	x23,x14,x16
80000bec:	01696f33          	or	x30,x18,x22
80000bf0:	41ef86b3          	sub	x13,x31,x30
80000bf4:	01e90d33          	add	x26,x18,x30
80000bf8:	41ee85b3          	sub	x11,x29,x30
80000bfc:	01eb45b3          	xor	x11,x22,x30
80000c00:	01246f33          	or	x30,x8,x18
80000c04:	01e94733          	xor	x14,x18,x30
80000c08:	41e38533          	sub	x10,x7,x30
80000c0c:	01ea74b3          	and	x9,x20,x30
80000c10:	41e30eb3          	sub	x29,x6,x30
80000c14:	41e30eb3          	sub	x29,x6,x30
80000c18:	00cff433          	and	x8,x31,x12
80000c1c:	01a44e33          	xor	x28,x8,x26
80000c20:	008c7e33          	and	x28,x24,x8
80000c24:	013e7e33          	and	x28,x28,x19
80000c28:	026e7693          	andi	x13,x28,38
80000c2c:	019e7933          	and	x18,x28,x25
80000c30:	01390933          	add	x18,x18,x19
80000c34:	01390cb3          	add	x25,x18,x19
80000c38:	010907b3          	add	x15,x18,x16
80000c3c:	01a4f6b3          	and	x13,x9,x26
80000c40:	0186cab3          	xor	x21,x13,x24
80000c44:	fdf68a93          	addi	x21,x13,-33
80000c48:	ffd6e793          	ori	x15,x13,-3
80000c4c:	01d6c833          	xor	x16,x13,x29
80000c50:	011cffb3          	and	x31,x25,x17
80000c54:	01bf84b3          	add	x9,x31,x27
80000c58:	018ff513          	andi	x10,x31,24
80000c5c:	00fff713          	andi	x14,x31,15
80000c60:	00efefb3          	or	x31,x31,x14
80000c64:	022fea13          	ori	x20,x31,34
80000c68:	01bb7cb3          	and	x25,x22,x27
80000c6c:	019d0833          	add	x16,x26,x25
80000c70:	01197c33          	and	x24,x18,x17
80000c74:	0188ecb3          	or	x25,x17,x24
80000c78:	018a68b3          	or	x17,x20,x24
80000c7c:	00767f33          	and	x30,x12,x7
80000c80:	01e50fb3          	add	x31,x10,x30
80000c84:	41e90b33          	sub	x22,x18,x30
80000c88:	01e96633          	or	x12,x18,x30
80000c8c:	00cdfbb3          	and	x23,x27,x12
80000c90:	017a8cb3          	add	x25,x21,x23
80000c94:	01790733          	add	x14,x18,x23
80000c98:	017d8533          	add	x10,x27,x23
80000c9c:	417d88b3          	sub	x17,x27,x23
80000ca0:	01abfc33          	and	x24,x23,x26
80000ca4:	018d66b3          	or	x13,x26,x24
80000ca8:	018d6333          	or	x6,x26,x24
80000cac:	018d76b3          	and	x13,x26,x24
80000cb0:	018ae4b3          	or	x9,x21,x24
80000cb4:	018af2b3          	and	x5,x21,x24
80000cb8:	fefd8513          	addi	x10,x27,-17
80000cbc:	00656533          	or	x10,x10,x6
80000cc0:	00740793          	addi	x15,x8,7
80000cc4:	0117f493          	andi	x9,x15,17
80000cc8:	fe078a93          	addi	x21,x15,-32
80000ccc:	ff588293          	addi	x5,x17,-11
80000cd0:	00928f13          	addi	x30,x5,9
80000cd4:	fe42fe93          	andi	x29,x5,-28
80000cd8:	01828793          	addi	x15,x5,24
80000cdc:	018c0813          	addi	x16,x24,24
80000ce0:	00f86e93          	ori	x29,x16,15
80000ce4:	01780db3          	add	x27,x16,x23
80000ce8:	fee80b13          	addi	x22,x16,-18
80000cec:	007868b3          	or	x17,x16,x7
80000cf0:	fe1f0b93          	addi	x23,x30,-31
80000cf4:	007b8733          	add	x14,x23,x7
80000cf8:	01dbe933          	or	x18,x23,x29
80000cfc:	405b89b3          	sub	x19,x23,x5
80000d00:	40bb8533          	sub	x10,x23,x11
80000d04:	018bcb33          	xor	x22,x23,x24
80000d08:	023b4893          	xori	x17,x22,35
80000d0c:	02288d93          	addi	x27,x17,34
80000d10:	fe574493          	xori	x9,x14,-27
80000d14:	fde4e513          	ori	x10,x9,-34
80000d18:	fe74ed13          	ori	x26,x9,-25
80000d1c:	fe97c493          	xori	x9,x15,-23
80000d20:	40a48fb3          	sub	x31,x9,x10
80000d24:	01a4cf33          	xor	x30,x9,x26
80000d28:	0154e493          	ori	x9,x9,21
80000d2c:	ff964b13          	xori	x22,x12,-7
80000d30:	007b6db3          	or	x27,x22,x7
80000d34:	fe5b7d93          	andi	x27,x22,-27
80000d38:	00eb4533          	xor	x10,x22,x14
80000d3c:	414b05b3          	sub	x11,x22,x20
80000d40:	fef5c513          	xori	x10,x11,-17
80000d44:	ffc57793          	andi	x15,x10,-4
80000d48:	00650633          	add	x12,x10,x6
80000d4c:	01650733          	add	x14,x10,x22
80000d50:	01757c13          	andi	x24,x10,23
80000d54:	01454293          	xori	x5,x10,20
80000d58:	fe1b6c93          	ori	x25,x22,-31
80000d5c:	00ecf7b3          	and	x15,x25,x14
80000d60:	ff3bec13          	ori	x24,x23,-13
80000d64:	00ac04b3          	add	x9,x24,x10
80000d68:	ff9c6d13          	ori	x26,x24,-7
80000d6c:	004ee813          	ori	x16,x29,4
80000d70:	ff784513          	xori	x10,x16,-9
80000d74:	00886db3          	or	x27,x16,x8
80000d78:	01784a33          	xor	x20,x16,x23
80000d7c:	ffda6a93          	ori	x21,x20,-3
80000d80:	008af8b3          	and	x17,x21,x8
80000d84:	012aea93          	ori	x21,x21,18
80000d88:	fe2af593          	andi	x11,x21,-30
80000d8c:	018a8b13          	addi	x22,x21,24
80000d90:	ff266713          	ori	x14,x12,-14
80000d94:	41570433          	sub	x8,x14,x21
80000d98:	01476ab3          	or	x21,x14,x20
80000d9c:	006744b3          	xor	x9,x14,x6
80000da0:	01e74293          	xori	x5,x14,30
80000da4:	01a70b33          	add	x22,x14,x26
80000da8:	00197593          	andi	x11,x18,1
80000dac:	0095cd13          	xori	x26,x11,9
80000db0:	0263f993          	andi	x19,x7,38
80000db4:	0029ff93          	andi	x31,x19,2
80000db8:	00b9fd33          	and	x26,x19,x11
80000dbc:	ffb5f413          	andi	x8,x11,-5
80000dc0:	ff346b93          	ori	x23,x8,-13
80000dc4:	00647fb3          	and	x31,x8,x6
80000dc8:	00a40f33          	add	x30,x8,x10
80000dcc:	001bf313          	andi	x6,x23,1
80000dd0:	fe537b93          	andi	x23,x6,-27
80000dd4:	01f36f33          	or	x30,x6,x31
80000dd8:	01030cb3          	add	x25,x6,x16
80000ddc:	01d37613          	andi	x12,x6,29
80000de0:	025e7693          	andi	x13,x28,37
80000de4:	0156cc33          	xor	x24,x13,x21
80000de8:	fdf6cb93          	xori	x23,x13,-33
80000dec:	0266ca13          	xori	x20,x13,38
80000df0:	0096f2b3          	and	x5,x13,x9
80000df4:	40868c33          	sub	x24,x13,x8
80000df8:	018d89b3          	add	x19,x27,x24
80000dfc:	00c9fd13          	andi	x26,x19,12
80000e00:	01c30b33          	add	x22,x6,x28
80000e04:	01fb4533          	xor	x10,x22,x31
80000e08:	019b7433          	and	x8,x22,x25
80000e0c:	01d48c33          	add	x24,x9,x29
80000e10:	00ec7913          	andi	x18,x24,14
80000e14:	feac0813          	addi	x16,x24,-22
80000e18:	00ac0ab3          	add	x21,x24,x10
80000e1c:	00640933          	add	x18,x8,x6
80000e20:	ff196993          	ori	x19,x18,-15
80000e24:	00b96d33          	or	x26,x18,x11
80000e28:	01c97933          	and	x18,x18,x28
80000e2c:	ff497313          	andi	x6,x18,-12
80000e30:	01dd0633          	add	x12,x26,x29
80000e34:	ffc64893          	xori	x17,x12,-4
80000e38:	01260813          	addi	x16,x12,18
80000e3c:	40a60d33          	sub	x26,x12,x10
80000e40:	01464db3          	xor	x27,x12,x20
80000e44:	41260833          	sub	x16,x12,x18
80000e48:	006d0633          	add	x12,x26,x6
80000e4c:	40cf0533          	sub	x10,x30,x12
80000e50:	01978c33          	add	x24,x15,x25
80000e54:	018cf7b3          	and	x15,x25,x24
80000e58:	418a8bb3          	sub	x23,x21,x24
80000e5c:	00870bb3          	add	x23,x14,x8
80000e60:	01747733          	and	x14,x8,x23
80000e64:	01740ab3          	add	x21,x8,x23
80000e68:	017478b3          	and	x17,x8,x23
80000e6c:	00740f33          	add	x30,x8,x7
80000e70:	01e44333          	xor	x6,x8,x30
80000e74:	01e46633          	or	x12,x8,x30
80000e78:	41e40733          	sub	x14,x8,x30
80000e7c:	01e74c33          	xor	x24,x14,x30
80000e80:	00ed8b33          	add	x22,x27,x14
80000e84:	01676bb3          	or	x23,x14,x22
80000e88:	016774b3          	and	x9,x14,x22
80000e8c:	416706b3          	sub	x13,x14,x22
80000e90:	416703b3          	sub	x7,x14,x22
80000e94:	416685b3          	sub	x11,x13,x22
80000e98:	41568a33          	sub	x20,x13,x21
80000e9c:	00ea46b3          	xor	x13,x20,x14
80000ea0:	419885b3          	sub	x11,x17,x25
80000ea4:	fde5ea93          	ori	x21,x11,-34
80000ea8:	417584b3          	sub	x9,x11,x23
80000eac:	41d509b3          	sub	x19,x10,x29
80000eb0:	0189e533          	or	x10,x19,x24
80000eb4:	0119e533          	or	x10,x19,x17
80000eb8:	02698f13          	addi	x30,x19,38
80000ebc:	41988533          	sub	x10,x17,x25
80000ec0:	01e57433          	and	x8,x10,x30
80000ec4:	007543b3          	xor	x7,x10,x7
80000ec8:	01257bb3          	and	x23,x10,x18
80000ecc:	fe956b13          	ori	x22,x10,-23
80000ed0:	419e0a33          	sub	x20,x28,x25
80000ed4:	027a6893          	ori	x17,x20,39
80000ed8:	006a0d33          	add	x26,x20,x6
80000edc:	007a7f33          	and	x30,x20,x7
80000ee0:	fe6a0a13          	addi	x20,x20,-26
80000ee4:	005a4993          	xori	x19,x20,5
80000ee8:	41ed0b33          	sub	x22,x26,x30
80000eec:	01648533          	add	x10,x9,x22
80000ef0:	416287b3          	sub	x15,x5,x22
80000ef4:	40fb0933          	sub	x18,x22,x15
80000ef8:	00fb08b3          	add	x17,x22,x15
80000efc:	41c98ab3          	sub	x21,x19,x28
80000f00:	015e4bb3          	xor	x23,x28,x21
80000f04:	015e4733          	xor	x14,x28,x21
80000f08:	01598a33          	add	x20,x19,x21
80000f0c:	41060cb3          	sub	x25,x12,x16
80000f10:	419f8cb3          	sub	x25,x31,x25
80000f14:	01988eb3          	add	x29,x17,x25
80000f18:	419885b3          	sub	x11,x17,x25
80000f1c:	019602b3          	add	x5,x12,x25
80000f20:	411b0d33          	sub	x26,x22,x17
80000f24:	01ae79b3          	and	x19,x28,x26
80000f28:	41a28433          	sub	x8,x5,x26
80000f2c:	41a98eb3          	sub	x29,x19,x26
80000f30:	01a6fa33          	and	x20,x13,x26
80000f34:	01abe3b3          	or	x7,x23,x26
80000f38:	006acd33          	xor	x26,x21,x6
80000f3c:	010d4513          	xori	x10,x26,16
80000f40:	007c4d33          	xor	x26,x24,x7
80000f44:	013d6933          	or	x18,x26,x19
80000f48:	005d4a33          	xor	x20,x26,x5
80000f4c:	01074fb3          	xor	x31,x14,x16
80000f50:	01ef8933          	add	x18,x31,x30
80000f54:	008fea13          	ori	x20,x31,8
80000f58:	018fec33          	or	x24,x31,x24
80000f5c:	007ac4b3          	xor	x9,x21,x7
80000f60:	0144c633          	xor	x12,x9,x20
80000f64:	00f4e993          	ori	x19,x9,15
80000f68:	0054c333          	xor	x6,x9,x5
80000f6c:	00b48833          	add	x16,x9,x11
80000f70:	011c44b3          	xor	x9,x24,x17
80000f74:	0114ce33          	xor	x28,x9,x17
80000f78:	0104e833          	or	x16,x9,x16
80000f7c:	407485b3          	sub	x11,x9,x7
80000f80:	00e48db3          	add	x27,x9,x14
80000f84:	ffa48493          	addi	x9,x9,-6
80000f88:	00abcb33          	xor	x22,x23,x10
80000f8c:	01650eb3          	add	x29,x10,x22
80000f90:	00dec9b3          	xor	x19,x29,x13
80000f94:	0136e933          	or	x18,x13,x19
80000f98:	0136c733          	xor	x14,x13,x19
80000f9c:	012a4533          	xor	x10,x20,x18
80000fa0:	00a4e533          	or	x10,x9,x10
80000fa4:	40a48f33          	sub	x30,x9,x10
80000fa8:	00a483b3          	add	x7,x9,x10
80000fac:	01cf4b33          	xor	x22,x30,x28
80000fb0:	01660ab3          	add	x21,x12,x22
80000fb4:	016f8533          	add	x10,x31,x22
80000fb8:	016fc933          	xor	x18,x31,x22
80000fbc:	0163e2b3          	or	x5,x7,x22
80000fc0:	00e3c333          	xor	x6,x7,x14
80000fc4:	006f8b33          	add	x22,x31,x6
80000fc8:	406f8c33          	sub	x24,x31,x6
80000fcc:	00687933          	and	x18,x16,x6
80000fd0:	0068c5b3          	xor	x11,x17,x6
80000fd4:	0068cbb3          	xor	x23,x17,x6
80000fd8:	018565b3          	or	x11,x10,x24
80000fdc:	01b5f993          	andi	x19,x11,27
80000fe0:	0072ec33          	or	x24,x5,x7
80000fe4:	013c6913          	ori	x18,x24,19
80000fe8:	00cc0a13          	addi	x20,x24,12
80000fec:	010d6733          	or	x14,x26,x16
80000ff0:	01676613          	ori	x12,x14,22
80000ff4:	01a74633          	xor	x12,x14,x26
80000ff8:	ff774493          	xori	x9,x14,-9
80000ffc:	01686533          	or	x10,x16,x22
80001000:	01e50d33          	add	x26,x10,x30
80001004:	01a56bb3          	or	x23,x10,x26
80001008:	01b57333          	and	x6,x10,x27
8000100c:	011546b3          	xor	x13,x10,x17
80001010:	00886933          	or	x18,x16,x8
80001014:	01996433          	or	x8,x18,x25
80001018:	02594a93          	xori	x21,x18,37
8000101c:	fe596f93          	ori	x31,x18,-27
80001020:	00f97533          	and	x10,x18,x15
80001024:	02596c93          	ori	x25,x18,37
80001028:	00acea33          	or	x20,x25,x10
8000102c:	41478ab3          	sub	x21,x15,x20
80001030:	01ed68b3          	or	x17,x26,x30
80001034:	011f69b3          	or	x19,x30,x17
80001038:	011a0cb3          	add	x25,x20,x17
8000103c:	014fe733          	or	x14,x31,x20
80001040:	00ef06b3          	add	x13,x30,x14
80001044:	00ef6e33          	or	x28,x30,x14
80001048:	00ed42b3          	xor	x5,x26,x14
8000104c:	0053e8b3          	or	x17,x7,x5
80001050:	41128733          	sub	x14,x5,x17
80001054:	0112c633          	xor	x12,x5,x17
80001058:	011a0633          	add	x12,x20,x17
8000105c:	01134733          	xor	x14,x6,x17
80001060:	015365b3          	or	x11,x6,x21
80001064:	00bb8a33          	add	x20,x23,x11
80001068:	00bd82b3          	add	x5,x27,x11
8000106c:	40be05b3          	sub	x11,x28,x11
80001070:	00ba8f33          	add	x30,x21,x11
80001074:	00bac8b3          	xor	x17,x21,x11
80001078:	01c5fdb3          	and	x27,x11,x28
8000107c:	40fd8bb3          	sub	x23,x27,x15
80001080:	01997ab3          	and	x21,x18,x25
80001084:	01bae833          	or	x16,x21,x27
80001088:	00baef93          	ori	x31,x21,11
8000108c:	00ccfbb3          	and	x23,x25,x12
80001090:	ff2bfb13          	andi	x22,x23,-14
80001094:	fe6be493          	ori	x9,x23,-26
80001098:	ff0bcf13          	xori	x30,x23,-16
8000109c:	013572b3          	and	x5,x10,x19
800010a0:	01a2f6b3          	and	x13,x5,x26
800010a4:	fe728c93          	addi	x25,x5,-25
800010a8:	0062e333          	or	x6,x5,x6
800010ac:	0242ed13          	ori	x26,x5,36
800010b0:	01c8f633          	and	x12,x17,x28
800010b4:	01160833          	add	x16,x12,x17
800010b8:	02866f13          	ori	x30,x12,40
800010bc:	00360693          	addi	x13,x12,3
800010c0:	011668b3          	or	x17,x12,x17
800010c4:	01460533          	add	x10,x12,x20
800010c8:	01f6f3b3          	and	x7,x13,x31
800010cc:	007ff933          	and	x18,x31,x7
800010d0:	0173f2b3          	and	x5,x7,x23
800010d4:	0056edb3          	or	x27,x13,x5
800010d8:	405688b3          	sub	x17,x13,x5
800010dc:	01847a33          	and	x20,x8,x24
800010e0:	014bfa33          	and	x20,x23,x20
800010e4:	01467a33          	and	x20,x12,x20
800010e8:	01467cb3          	and	x25,x12,x20
800010ec:	011df533          	and	x10,x27,x17
800010f0:	00a8c633          	xor	x12,x17,x10
800010f4:	00af0ab3          	add	x21,x30,x10
800010f8:	00ab78b3          	and	x17,x22,x10
800010fc:	00ab46b3          	xor	x13,x22,x10
80001100:	01fa7d33          	and	x26,x20,x31
80001104:	41ad04b3          	sub	x9,x26,x26
80001108:	01aeef33          	or	x30,x29,x26
8000110c:	01aef7b3          	and	x15,x29,x26
80001110:	01a4f333          	and	x6,x9,x26
80001114:	01a36933          	or	x18,x6,x26
80001118:	fd990a13          	addi	x20,x18,-39
8000111c:	017a74b3          	and	x9,x20,x23
80001120:	01cb8a13          	addi	x20,x23,28
80001124:	000a6e93          	ori	x29,x20,0
80001128:	ff7a7413          	andi	x8,x20,-9
8000112c:	fedc0713          	addi	x14,x24,-19
80001130:	02270593          	addi	x11,x14,34
80001134:	01b763b3          	or	x7,x14,x27
80001138:	fe876d13          	ori	x26,x14,-24
8000113c:	00958d93          	addi	x27,x11,9
80001140:	fe3dc813          	xori	x16,x27,-29
80001144:	ff4df813          	andi	x16,x27,-12
80001148:	027de713          	ori	x14,x27,39
8000114c:	013d8eb3          	add	x29,x27,x19
80001150:	02270993          	addi	x19,x14,34
80001154:	0059f6b3          	and	x13,x19,x5
80001158:	41398f33          	sub	x30,x19,x19
8000115c:	01998333          	add	x6,x19,x25
80001160:	0159e633          	or	x12,x19,x21
80001164:	00e9e693          	ori	x13,x19,14
80001168:	ff58cc13          	xori	x24,x17,-11
8000116c:	fe0c6313          	ori	x6,x24,-32
80001170:	00054693          	xori	x13,x10,0
80001174:	416687b3          	sub	x15,x13,x22
80001178:	00c6efb3          	or	x31,x13,x12
8000117c:	00dbc813          	xori	x16,x23,13
80001180:	00980b33          	add	x22,x16,x9
80001184:	00280e93          	addi	x29,x16,2
80001188:	02487c13          	andi	x24,x16,36
8000118c:	00d94f93          	xori	x31,x18,13
80001190:	014f8c33          	add	x24,x31,x20
80001194:	000fcf13          	xori	x30,x31,0
80001198:	408f8ab3          	sub	x21,x31,x8
8000119c:	007ff2b3          	and	x5,x31,x7
800011a0:	ff5a4d13          	xori	x26,x20,-11
800011a4:	ff5d4393          	xori	x7,x26,-11
800011a8:	00dd78b3          	and	x17,x26,x13
800011ac:	ff8d7593          	andi	x11,x26,-8
800011b0:	40ed0b33          	sub	x22,x26,x14
800011b4:	00cd7893          	andi	x17,x26,12
800011b8:	001b6f13          	ori	x30,x22,1
800011bc:	019f65b3          	or	x11,x30,x25
800011c0:	02196d93          	ori	x27,x18,33
800011c4:	013dff33          	and	x30,x27,x19
800011c8:	fe6dfd13          	andi	x26,x27,-26
800011cc:	fe8e6913          	ori	x18,x28,-24
800011d0:	01790393          	addi	x7,x18,23
800011d4:	fea94d13          	xori	x26,x18,-22
800011d8:	fdb90413          	addi	x8,x18,-37
800011dc:	fdb66a13          	ori	x20,x12,-37
800011e0:	013a4b33          	xor	x22,x20,x19
800011e4:	01aa4533          	xor	x10,x20,x26
800011e8:	025a4993          	xori	x19,x20,37
800011ec:	00fa7a13          	andi	x20,x20,15
800011f0:	fe95ec93          	ori	x25,x11,-23
800011f4:	01dc8593          	addi	x11,x25,29
800011f8:	01bcc8b3          	xor	x17,x25,x27
800011fc:	016cf533          	and	x10,x25,x22
80001200:	00ace733          	or	x14,x25,x10
80001204:	00acec13          	ori	x24,x25,10
80001208:	005c7a93          	andi	x21,x24,5
8000120c:	fe4ac593          	xori	x11,x21,-28
80001210:	011ff393          	andi	x7,x31,17
80001214:	41a38fb3          	sub	x31,x7,x26
80001218:	01b38933          	add	x18,x7,x27
8000121c:	fff7fc93          	andi	x25,x15,-1
80001220:	016ce2b3          	or	x5,x25,x22
80001224:	01bc8933          	add	x18,x25,x27
80001228:	021ce913          	ori	x18,x25,33
8000122c:	003fff13          	andi	x30,x31,3
80001230:	406f0833          	sub	x16,x30,x6
80001234:	41df0433          	sub	x8,x30,x29
80001238:	fdff4713          	xori	x14,x30,-33
8000123c:	fe9f0513          	addi	x10,x30,-23
80001240:	fef47693          	andi	x13,x8,-17
80001244:	00c6ee33          	or	x28,x13,x12
80001248:	01a6fcb3          	and	x25,x13,x26
8000124c:	0136ea13          	ori	x20,x13,19
80001250:	01b6efb3          	or	x31,x13,x27
80001254:	fe56fb13          	andi	x22,x13,-27
80001258:	3ce28013          	addi	x0,x5,974
8000125c:	39230013          	addi	x0,x6,914
80001260:	0c838013          	addi	x0,x7,200
80001264:	04d40013          	addi	x0,x8,77
80001268:	06b48013          	addi	x0,x9,107
8000126c:	e7e50013          	addi	x0,x10,-386
80001270:	e1558013          	addi	x0,x11,-491
80001274:	fd960013          	addi	x0,x12,-39
80001278:	27c68013          	addi	x0,x13,636
8000127c:	01d70013          	addi	x0,x14,29
80001280:	02f78013          	addi	x0,x15,47
80001284:	cff80013          	addi	x0,x16,-769
80001288:	19288013          	addi	x0,x17,402
8000128c:	00390013          	addi	x0,x18,3
80001290:	3a798013          	addi	x0,x19,935
80001294:	261a0013          	addi	x0,x20,609
80001298:	dc7a8013          	addi	x0,x21,-569
8000129c:	d45b0013          	addi	x0,x22,-699
800012a0:	2cbb8013          	addi	x0,x23,715
800012a4:	093c0013          	addi	x0,x24,147
800012a8:	381c8013          	addi	x0,x25,897
800012ac:	38cd0013          	addi	x0,x26,908
800012b0:	dfad8013          	addi	x0,x27,-518
800012b4:	c96e0013          	addi	x0,x28,-874
800012b8:	1e7e8013          	addi	x0,x29,487
800012bc:	3c3f0013          	addi	x0,x30,963
800012c0:	15bf8013          	addi	x0,x31,347
800012c4:	00ad07b3          	add	x15,x26,x10
800012c8:	0117f5b3          	and	x11,x15,x17
800012cc:	019487b3          	add	x15,x9,x25
800012d0:	fe57ec13          	ori	x24,x15,-27
800012d4:	0187fbb3          	and	x23,x15,x24
800012d8:	006389b3          	add	x19,x7,x6
800012dc:	01f9cb33          	xor	x22,x19,x31
800012e0:	01d98493          	addi	x9,x19,29
800012e4:	406983b3          	sub	x7,x19,x6
800012e8:	016c8a33          	add	x20,x25,x22
800012ec:	ff0a4293          	xori	x5,x20,-16
800012f0:	01ba6733          	or	x14,x20,x27
800012f4:	01da0a13          	addi	x20,x20,29
800012f8:	01ea4a13          	xori	x20,x20,30
800012fc:	01f783b3          	add	x7,x15,x31
80001300:	ff53e393          	ori	x7,x7,-11
80001304:	417385b3          	sub	x11,x7,x23
80001308:	41e38c33          	sub	x24,x7,x30
8000130c:	ff23c393          	xori	x7,x7,-14
80001310:	01d3f713          	andi	x14,x7,29
80001314:	017906b3          	add	x13,x18,x23
80001318:	00db8f33          	add	x30,x23,x13
8000131c:	01c58db3          	add	x27,x11,x28
80001320:	01b77833          	and	x16,x14,x27
80001324:	01b30fb3          	add	x31,x6,x27
80001328:	01ec86b3          	add	x13,x25,x30
8000132c:	40df0733          	sub	x14,x30,x13
80001330:	00d473b3          	and	x7,x8,x13
80001334:	00d47433          	and	x8,x8,x13
80001338:	007d8eb3          	add	x29,x27,x7
8000133c:	01dfe433          	or	x8,x31,x29
80001340:	01dff833          	and	x16,x31,x29
80001344:	01d87cb3          	and	x25,x16,x29
80001348:	41d80fb3          	sub	x31,x16,x29
8000134c:	016e86b3          	add	x13,x29,x22
80001350:	00de8433          	add	x8,x29,x13
80001354:	00dfc333          	xor	x6,x31,x13
80001358:	00dfc833          	xor	x16,x31,x13
8000135c:	00dfcab3          	xor	x21,x31,x13
80001360:	00df87b3          	add	x15,x31,x13
80001364:	41b30433          	sub	x8,x6,x27
80001368:	41040db3          	sub	x27,x8,x16
8000136c:	411c07b3          	sub	x15,x24,x17
80001370:	0147fd33          	and	x26,x15,x20
80001374:	0157f6b3          	and	x13,x15,x21
80001378:	40978bb3          	sub	x23,x15,x9
8000137c:	008bf893          	andi	x17,x23,8
80001380:	01bbcdb3          	xor	x27,x23,x27
80001384:	011b8633          	add	x12,x23,x17
80001388:	41930eb3          	sub	x29,x6,x25
8000138c:	ff2efe13          	andi	x28,x29,-14
80001390:	ff1ec593          	xori	x11,x29,-15
80001394:	febe8d13          	addi	x26,x29,-21
80001398:	01be89b3          	add	x19,x29,x27
8000139c:	416c8e33          	sub	x28,x25,x22
800013a0:	011e7a33          	and	x20,x28,x17
800013a4:	008e7913          	andi	x18,x28,8
800013a8:	41ee0933          	sub	x18,x28,x30
800013ac:	406e0cb3          	sub	x25,x28,x6
800013b0:	00ae7813          	andi	x16,x28,10
800013b4:	41e782b3          	sub	x5,x15,x30
800013b8:	405f0633          	sub	x12,x30,x5
800013bc:	408e8b33          	sub	x22,x29,x8
800013c0:	016acfb3          	xor	x31,x21,x22
800013c4:	016aceb3          	xor	x29,x21,x22
800013c8:	41d80533          	sub	x10,x16,x29
800013cc:	00a57cb3          	and	x25,x10,x10
800013d0:	00ae08b3          	add	x17,x28,x10
800013d4:	00a866b3          	or	x13,x16,x10
800013d8:	40668bb3          	sub	x23,x13,x6
800013dc:	01784e33          	xor	x28,x16,x23
800013e0:	01786fb3          	or	x31,x16,x23
800013e4:	0179c2b3          	xor	x5,x19,x23
800013e8:	01798db3          	add	x27,x19,x23
800013ec:	411c07b3          	sub	x15,x24,x17
800013f0:	00fb7633          	and	x12,x22,x15
800013f4:	00fb0db3          	add	x27,x22,x15
800013f8:	00fb47b3          	xor	x15,x22,x15
800013fc:	40fb09b3          	sub	x19,x22,x15
80001400:	00fb6eb3          	or	x29,x22,x15
80001404:	009f4733          	xor	x14,x30,x9
80001408:	01e708b3          	add	x17,x14,x30
8000140c:	0078cf33          	xor	x30,x17,x7
80001410:	409f0cb3          	sub	x25,x30,x9
80001414:	011f6833          	or	x16,x30,x17
80001418:	0136c333          	xor	x6,x13,x19
8000141c:	fe230c13          	addi	x24,x6,-30
80001420:	00734b33          	xor	x22,x6,x7
80001424:	01034993          	xori	x19,x6,16
80001428:	0187cab3          	xor	x21,x15,x24
8000142c:	01eae2b3          	or	x5,x21,x30
80001430:	017aed33          	or	x26,x21,x23
80001434:	023afa93          	andi	x21,x21,35
80001438:	017a8a13          	addi	x20,x21,23
8000143c:	0069cf33          	xor	x30,x19,x6
80001440:	014f4f33          	xor	x30,x30,x20
80001444:	016f0b13          	addi	x22,x30,22
80001448:	40ef09b3          	sub	x19,x30,x14
8000144c:	013f7333          	and	x6,x30,x19
80001450:	40af0d33          	sub	x26,x30,x10
80001454:	00ecce33          	xor	x28,x25,x14
80001458:	01c744b3          	xor	x9,x14,x28
8000145c:	01bd4333          	xor	x6,x26,x27
80001460:	00638533          	add	x10,x7,x6
80001464:	006c0d33          	add	x26,x24,x6
80001468:	01aa4733          	xor	x14,x20,x26
8000146c:	00ef47b3          	xor	x15,x30,x14
80001470:	00ef62b3          	or	x5,x30,x14
80001474:	40ef04b3          	sub	x9,x30,x14
80001478:	00bc4db3          	xor	x27,x24,x11
8000147c:	01b3f933          	and	x18,x7,x27
80001480:	01b88533          	add	x10,x17,x27
80001484:	01b37ab3          	and	x21,x6,x27
80001488:	01b30533          	add	x10,x6,x27
8000148c:	00cd4ab3          	xor	x21,x26,x12
80001490:	015647b3          	xor	x15,x12,x21
80001494:	015c7533          	and	x10,x24,x21
80001498:	01540c33          	add	x24,x8,x21
8000149c:	01544b33          	xor	x22,x8,x21
800014a0:	0155fcb3          	and	x25,x11,x21
800014a4:	013ee2b3          	or	x5,x29,x19
800014a8:	fde28b13          	addi	x22,x5,-34
800014ac:	00a96a33          	or	x20,x18,x10
800014b0:	012a08b3          	add	x17,x20,x18
800014b4:	413a0eb3          	sub	x29,x20,x19
800014b8:	01796733          	or	x14,x18,x23
800014bc:	00177793          	andi	x15,x14,1
800014c0:	fe077813          	andi	x16,x14,-32
800014c4:	405704b3          	sub	x9,x14,x5
800014c8:	00996633          	or	x12,x18,x9
800014cc:	00e66fb3          	or	x31,x12,x14
800014d0:	01860733          	add	x14,x12,x24
800014d4:	41560e33          	sub	x28,x12,x21
800014d8:	00c672b3          	and	x5,x12,x12
800014dc:	006ee533          	or	x10,x29,x6
800014e0:	41750433          	sub	x8,x10,x23
800014e4:	ff456a93          	ori	x21,x10,-12
800014e8:	01454433          	xor	x8,x10,x20
800014ec:	02856313          	ori	x6,x10,40
800014f0:	00956b93          	ori	x23,x10,9
800014f4:	013f6ab3          	or	x21,x30,x19
800014f8:	0152e8b3          	or	x17,x5,x21
800014fc:	00c46333          	or	x6,x8,x12
80001500:	006df2b3          	and	x5,x27,x6
80001504:	406a0533          	sub	x10,x20,x6
80001508:	01b4ebb3          	or	x23,x9,x27
8000150c:	0175c733          	xor	x14,x11,x23
80001510:	0173c333          	xor	x6,x7,x23
80001514:	417385b3          	sub	x11,x7,x23
80001518:	01c6e8b3          	or	x17,x13,x28
8000151c:	01188bb3          	add	x23,x17,x17
80001520:	011c4433          	xor	x8,x24,x17
80001524:	011fc3b3          	xor	x7,x31,x17
80001528:	0119e8b3          	or	x17,x19,x17
8000152c:	01d7ed33          	or	x26,x15,x29
80001530:	01ae8ab3          	add	x21,x29,x26
80001534:	41a48b33          	sub	x22,x9,x26
80001538:	01a5f833          	and	x16,x11,x26
8000153c:	01a4e533          	or	x10,x9,x26
80001540:	01ae8933          	add	x18,x29,x26
80001544:	009ff833          	and	x16,x31,x9
80001548:	00d872b3          	and	x5,x16,x13
8000154c:	00cdfeb3          	and	x29,x27,x12
80001550:	01ee8793          	addi	x15,x29,30
80001554:	ffae8413          	addi	x8,x29,-6
80001558:	01f87eb3          	and	x29,x16,x31
8000155c:	ff5ec513          	xori	x10,x29,-11
80001560:	fdfec693          	xori	x13,x29,-33
80001564:	feeecc13          	xori	x24,x29,-18
80001568:	00ea7333          	and	x6,x20,x14
8000156c:	01736d33          	or	x26,x6,x23
80001570:	ff936e93          	ori	x29,x6,-7
80001574:	018348b3          	xor	x17,x6,x24
80001578:	011306b3          	add	x13,x6,x17
8000157c:	0079fd33          	and	x26,x19,x7
80001580:	00dd6c33          	or	x24,x26,x13
80001584:	fd8d6c93          	ori	x25,x26,-40
80001588:	027d4493          	xori	x9,x26,39
8000158c:	fddd7b13          	andi	x22,x26,-35
80001590:	020d4b13          	xori	x22,x26,32
80001594:	017a77b3          	and	x15,x20,x23
80001598:	00fb6a33          	or	x20,x22,x15
8000159c:	01d57733          	and	x14,x10,x29
800015a0:	00eeecb3          	or	x25,x29,x14
800015a4:	00eefd33          	and	x26,x29,x14
800015a8:	00edfbb3          	and	x23,x27,x14
800015ac:	41748e33          	sub	x28,x9,x23
800015b0:	017f4fb3          	xor	x31,x30,x23
800015b4:	417c8ab3          	sub	x21,x25,x23
800015b8:	0133f5b3          	and	x11,x7,x19
800015bc:	40b285b3          	sub	x11,x5,x11
800015c0:	00b283b3          	add	x7,x5,x11
800015c4:	40b505b3          	sub	x11,x10,x11
800015c8:	00b54db3          	xor	x27,x10,x11
800015cc:	00fc79b3          	and	x19,x24,x15
800015d0:	0137c833          	xor	x16,x15,x19
800015d4:	01358933          	add	x18,x11,x19
800015d8:	0135ebb3          	or	x23,x11,x19
800015dc:	0135fab3          	and	x21,x11,x19
800015e0:	41358533          	sub	x10,x11,x19
800015e4:	025e8913          	addi	x18,x29,37
800015e8:	01496393          	ori	x7,x18,20
800015ec:	02798393          	addi	x7,x19,39
800015f0:	41b386b3          	sub	x13,x7,x27
800015f4:	fe43e813          	ori	x16,x7,-28
800015f8:	016f8393          	addi	x7,x31,22
800015fc:	01d38813          	addi	x16,x7,29
80001600:	00d3c433          	xor	x8,x7,x13
80001604:	fe93fa93          	andi	x21,x7,-23
80001608:	02350c93          	addi	x25,x10,35
8000160c:	fdacca93          	xori	x21,x25,-38
80001610:	01ccf333          	and	x6,x25,x28
80001614:	024ce713          	ori	x14,x25,36
80001618:	ff3cc793          	xori	x15,x25,-13
8000161c:	fe840613          	addi	x12,x8,-24
80001620:	01764593          	xori	x11,x12,23
80001624:	01d60b33          	add	x22,x12,x29
80001628:	01c66c93          	ori	x25,x12,28
8000162c:	01f64813          	xori	x16,x12,31
80001630:	41d603b3          	sub	x7,x12,x29
80001634:	00344e93          	xori	x29,x8,3
80001638:	013ef5b3          	and	x11,x29,x19
8000163c:	ffd8c493          	xori	x9,x17,-3
80001640:	fef48b13          	addi	x22,x9,-17
80001644:	02648693          	addi	x13,x9,38
80001648:	fe394f13          	xori	x30,x18,-29
8000164c:	006f4413          	xori	x8,x30,6
80001650:	01ff68b3          	or	x17,x30,x31
80001654:	01ef72b3          	and	x5,x30,x30
80001658:	021f4a93          	xori	x21,x30,33
8000165c:	01eaea33          	or	x20,x21,x30
80001660:	018ac533          	xor	x10,x21,x24
80001664:	fe0aeb93          	ori	x23,x21,-32
80001668:	40ea82b3          	sub	x5,x21,x14
8000166c:	020d4a13          	xori	x20,x26,32
80001670:	017a4fb3          	xor	x31,x20,x23
80001674:	019a7833          	and	x16,x20,x25
80001678:	005a09b3          	add	x19,x20,x5
8000167c:	010a0393          	addi	x7,x20,16
80001680:	409a0ab3          	sub	x21,x20,x9
80001684:	026ce793          	ori	x15,x25,38
80001688:	0067ceb3          	xor	x29,x15,x6
8000168c:	ff586793          	ori	x15,x16,-11
80001690:	01778313          	addi	x6,x15,23
80001694:	00d7ecb3          	or	x25,x15,x13
80001698:	00a6e913          	ori	x18,x13,10
8000169c:	01b90333          	add	x6,x18,x27
800016a0:	010969b3          	or	x19,x18,x16
800016a4:	fd990e13          	addi	x28,x18,-39
800016a8:	028b6c13          	ori	x24,x22,40
800016ac:	000c7613          	andi	x12,x24,0
800016b0:	018c4d93          	xori	x27,x24,24
800016b4:	fe3c6c13          	ori	x24,x24,-29
800016b8:	015c7913          	andi	x18,x24,21
800016bc:	00aeec13          	ori	x24,x29,10
800016c0:	007c4333          	xor	x6,x24,x7
800016c4:	fdcc0313          	addi	x6,x24,-36
800016c8:	011c7893          	andi	x17,x24,17
800016cc:	416c07b3          	sub	x15,x24,x22
800016d0:	406c0733          	sub	x14,x24,x6
800016d4:	02767e93          	andi	x29,x12,39
800016d8:	fdaecb13          	xori	x22,x29,-38
800016dc:	00937c93          	andi	x25,x6,9
800016e0:	011cf2b3          	and	x5,x25,x17
800016e4:	ffdcf613          	andi	x12,x25,-3
800016e8:	fda7f813          	andi	x16,x15,-38
800016ec:	00387e13          	andi	x28,x16,3
800016f0:	41180b33          	sub	x22,x16,x17
800016f4:	01987cb3          	and	x25,x16,x25
800016f8:	ff7ff813          	andi	x16,x31,-9
800016fc:	01687ab3          	and	x21,x16,x22
80001700:	01387733          	and	x14,x16,x19
80001704:	02487513          	andi	x10,x16,36
80001708:	01d80913          	addi	x18,x16,29
8000170c:	ff757313          	andi	x6,x10,-9
80001710:	00736cb3          	or	x25,x6,x7
80001714:	01f37693          	andi	x13,x6,31
80001718:	41530933          	sub	x18,x6,x21
8000171c:	01f34b93          	xori	x23,x6,31
80001720:	41430e33          	sub	x28,x6,x20
80001724:	015f07b3          	add	x15,x30,x21
80001728:	00f78633          	add	x12,x15,x15
8000172c:	00bd8eb3          	add	x29,x27,x11
80001730:	00aec5b3          	xor	x11,x29,x10
80001734:	416e8933          	sub	x18,x29,x22
80001738:	005309b3          	add	x19,x6,x5
8000173c:	0069c333          	xor	x6,x19,x6
80001740:	ff398f93          	addi	x31,x19,-13
80001744:	010989b3          	add	x19,x19,x16
80001748:	00ff0833          	add	x16,x30,x15
8000174c:	411807b3          	sub	x15,x16,x17
80001750:	fef87293          	andi	x5,x16,-17
80001754:	41480eb3          	sub	x29,x16,x20
80001758:	01486733          	or	x14,x16,x20
8000175c:	01f30733          	add	x14,x6,x31
80001760:	00477b93          	andi	x23,x14,4
80001764:	011702b3          	add	x5,x14,x17
80001768:	fee70f13          	addi	x30,x14,-18
8000176c:	00674f93          	xori	x31,x14,6
80001770:	01677bb3          	and	x23,x14,x22
80001774:	009f06b3          	add	x13,x30,x9
80001778:	00d4ec33          	or	x24,x9,x13
8000177c:	00958c33          	add	x24,x11,x9
80001780:	018483b3          	add	x7,x9,x24
80001784:	418e0933          	sub	x18,x28,x24
80001788:	007d04b3          	add	x9,x26,x7
8000178c:	0092c833          	xor	x16,x5,x9
80001790:	409382b3          	sub	x5,x7,x9
80001794:	009704b3          	add	x9,x14,x9
80001798:	014d06b3          	add	x13,x26,x20
8000179c:	00da7433          	and	x8,x20,x13
800017a0:	00da77b3          	and	x15,x20,x13
800017a4:	00d57fb3          	and	x31,x10,x13
800017a8:	00dd6b33          	or	x22,x26,x13
800017ac:	01938c33          	add	x24,x7,x25
800017b0:	41868e33          	sub	x28,x13,x24
800017b4:	418782b3          	sub	x5,x15,x24
800017b8:	0187f533          	and	x10,x15,x24
800017bc:	0187eab3          	or	x21,x15,x24
800017c0:	418787b3          	sub	x15,x15,x24
800017c4:	414a88b3          	sub	x17,x21,x20
800017c8:	fe788e13          	addi	x28,x17,-25
800017cc:	41ed0933          	sub	x18,x26,x30
800017d0:	01296d33          	or	x26,x18,x18
800017d4:	00694c33          	xor	x24,x18,x6
800017d8:	416a0c33          	sub	x24,x20,x22
800017dc:	fddc6f93          	ori	x31,x24,-35
800017e0:	fecc6813          	ori	x16,x24,-20
800017e4:	016c74b3          	and	x9,x24,x22
800017e8:	41c308b3          	sub	x17,x6,x28
800017ec:	00988433          	add	x8,x17,x9
800017f0:	02188313          	addi	x6,x17,33
800017f4:	01788db3          	add	x27,x17,x23
800017f8:	41a88933          	sub	x18,x17,x26
800017fc:	41f30c33          	sub	x24,x6,x31
80001800:	ffbc7693          	andi	x13,x24,-5
80001804:	005c0533          	add	x10,x24,x5
80001808:	febc6e93          	ori	x29,x24,-21
8000180c:	417c0cb3          	sub	x25,x24,x23
80001810:	00ac0333          	add	x6,x24,x10
80001814:	40ce06b3          	sub	x13,x28,x12
80001818:	00d60633          	add	x12,x12,x13
8000181c:	41ae09b3          	sub	x19,x28,x26
80001820:	413f83b3          	sub	x7,x31,x19
80001824:	013e8933          	add	x18,x29,x19
80001828:	41bb8433          	sub	x8,x23,x27
8000182c:	008f82b3          	add	x5,x31,x8
80001830:	008fc933          	xor	x18,x31,x8
80001834:	00894333          	xor	x6,x18,x8
80001838:	40598db3          	sub	x27,x19,x5
8000183c:	01b64b33          	xor	x22,x12,x27
80001840:	01beeb33          	or	x22,x29,x27
80001844:	01bd64b3          	or	x9,x26,x27
80001848:	01b87733          	and	x14,x16,x27
8000184c:	407587b3          	sub	x15,x11,x7
80001850:	00f38bb3          	add	x23,x7,x15
80001854:	00fbc6b3          	xor	x13,x23,x15
80001858:	00ff7db3          	and	x27,x30,x15
8000185c:	40ff0833          	sub	x16,x30,x15
80001860:	00ff7bb3          	and	x23,x30,x15
80001864:	01a646b3          	xor	x13,x12,x26
80001868:	0106e533          	or	x10,x13,x16
8000186c:	018cc533          	xor	x10,x25,x24
80001870:	01b50a13          	addi	x20,x10,27
80001874:	01d57f33          	and	x30,x10,x29
80001878:	01e5cbb3          	xor	x23,x11,x30
8000187c:	ff1bf313          	andi	x6,x23,-15
80001880:	01fbe533          	or	x10,x23,x31
80001884:	01ebe9b3          	or	x19,x23,x30
80001888:	00de44b3          	xor	x9,x28,x13
8000188c:	407487b3          	sub	x15,x9,x7
80001890:	fea48d93          	addi	x27,x9,-22
80001894:	40a48533          	sub	x10,x9,x10
80001898:	41b48c33          	sub	x24,x9,x27
8000189c:	01b8ca33          	xor	x20,x17,x27
800018a0:	00aa6633          	or	x12,x20,x10
800018a4:	017a69b3          	or	x19,x20,x23
800018a8:	01ba4e93          	xori	x29,x20,27
800018ac:	015a0d33          	add	x26,x20,x21
800018b0:	412a06b3          	sub	x13,x20,x18
800018b4:	0084cfb3          	xor	x31,x9,x8
800018b8:	01fa6e33          	or	x28,x20,x31
800018bc:	01f44f33          	xor	x30,x8,x31
800018c0:	01e8c4b3          	xor	x9,x17,x30
800018c4:	41e60c33          	sub	x24,x12,x30
800018c8:	0156cb33          	xor	x22,x13,x21
800018cc:	016af3b3          	and	x7,x21,x22
800018d0:	016a7733          	and	x14,x20,x22
800018d4:	01698eb3          	add	x29,x19,x22
800018d8:	007c4fb3          	xor	x31,x24,x7
800018dc:	01fcfcb3          	and	x25,x25,x31
800018e0:	41fe0b33          	sub	x22,x28,x31
800018e4:	01f5f9b3          	and	x19,x11,x31
800018e8:	01f38bb3          	add	x23,x7,x31
800018ec:	00efc7b3          	xor	x15,x31,x14
800018f0:	40fe8933          	sub	x18,x29,x15
800018f4:	00ff4333          	xor	x6,x30,x15
800018f8:	40f58833          	sub	x16,x11,x15
800018fc:	00f90633          	add	x12,x18,x15
80001900:	00f964b3          	or	x9,x18,x15
80001904:	00fee533          	or	x10,x29,x15
80001908:	41a50433          	sub	x8,x10,x26
8000190c:	01ed62b3          	or	x5,x26,x30
80001910:	41428933          	sub	x18,x5,x20
80001914:	0182eb93          	ori	x23,x5,24
80001918:	00dc6fb3          	or	x31,x24,x13
8000191c:	00dfe633          	or	x12,x31,x13
80001920:	017fff33          	and	x30,x31,x23
80001924:	00aff333          	and	x6,x31,x10
80001928:	01ed6ab3          	or	x21,x26,x30
8000192c:	022a8e13          	addi	x28,x21,34
80001930:	01cac733          	xor	x14,x21,x28
80001934:	40da8ab3          	sub	x21,x21,x13
80001938:	020ace93          	xori	x29,x21,32
8000193c:	018de7b3          	or	x15,x27,x24
80001940:	00e7c8b3          	xor	x17,x15,x14
80001944:	419783b3          	sub	x7,x15,x25
80001948:	41a78ab3          	sub	x21,x15,x26
8000194c:	418789b3          	sub	x19,x15,x24
80001950:	40c788b3          	sub	x17,x15,x12
80001954:	012ae3b3          	or	x7,x21,x18
80001958:	007ecbb3          	xor	x23,x29,x7
8000195c:	01a5e633          	or	x12,x11,x26
80001960:	00c54a33          	xor	x20,x10,x12
80001964:	40c50933          	sub	x18,x10,x12
80001968:	01d5ea33          	or	x20,x11,x29
8000196c:	014cf2b3          	and	x5,x25,x20
80001970:	014cc633          	xor	x12,x25,x20
80001974:	014cf733          	and	x14,x25,x20
80001978:	010669b3          	or	x19,x12,x16
8000197c:	013878b3          	and	x17,x16,x19
80001980:	0137e633          	or	x12,x15,x19
80001984:	0137ec33          	or	x24,x15,x19
80001988:	013ae933          	or	x18,x21,x19
8000198c:	0167ed33          	or	x26,x15,x22
80001990:	01af0633          	add	x12,x30,x26
80001994:	41af0bb3          	sub	x23,x30,x26
80001998:	01af03b3          	add	x7,x30,x26
8000199c:	01a9eb33          	or	x22,x19,x26
800019a0:	41ab0433          	sub	x8,x22,x26
800019a4:	01737d33          	and	x26,x6,x23
800019a8:	014d0e13          	addi	x28,x26,20
800019ac:	00b57fb3          	and	x31,x10,x11
800019b0:	013f8ab3          	add	x21,x31,x19
800019b4:	fd8f8f13          	addi	x30,x31,-40
800019b8:	00ccf5b3          	and	x11,x25,x12
800019bc:	01c5fa13          	andi	x20,x11,28
800019c0:	fef5e513          	ori	x10,x11,-17
800019c4:	0105e633          	or	x12,x11,x16
800019c8:	01b7f3b3          	and	x7,x15,x27
800019cc:	ff83cc13          	xori	x24,x7,-8
800019d0:	0143e713          	ori	x14,x7,20
800019d4:	00f3e3b3          	or	x7,x7,x15
800019d8:	fec3ef93          	ori	x31,x7,-20
800019dc:	01aefc33          	and	x24,x29,x26
800019e0:	00dc4f93          	xori	x31,x24,13
800019e4:	ff6c7393          	andi	x7,x24,-10
800019e8:	011c6ab3          	or	x21,x24,x17
800019ec:	41ec03b3          	sub	x7,x24,x30
800019f0:	01ec4bb3          	xor	x23,x24,x30
800019f4:	012d7e33          	and	x28,x26,x18
800019f8:	01cb4933          	xor	x18,x22,x28
800019fc:	00f2f533          	and	x10,x5,x15
80001a00:	00a6f633          	and	x12,x13,x10
80001a04:	00a6f533          	and	x10,x13,x10
80001a08:	01567c33          	and	x24,x12,x21
80001a0c:	018ae9b3          	or	x19,x21,x24
80001a10:	018a8833          	add	x16,x21,x24
80001a14:	018e4533          	xor	x10,x28,x24
80001a18:	00837fb3          	and	x31,x6,x8
80001a1c:	01f47d33          	and	x26,x8,x31
80001a20:	01f47cb3          	and	x25,x8,x31
80001a24:	01fac8b3          	xor	x17,x21,x31
80001a28:	41f30ab3          	sub	x21,x6,x31
80001a2c:	01c3f9b3          	and	x19,x7,x28
80001a30:	013dcbb3          	xor	x23,x27,x19
80001a34:	013a44b3          	xor	x9,x20,x19
80001a38:	013a7c33          	and	x24,x20,x19
80001a3c:	013a02b3          	add	x5,x20,x19
80001a40:	013a7ab3          	and	x21,x20,x19
80001a44:	ffdd0493          	addi	x9,x26,-3
80001a48:	0254e693          	ori	x13,x9,37
80001a4c:	ff4e8c13          	addi	x24,x29,-12
80001a50:	01ec4533          	xor	x10,x24,x30
80001a54:	01ec7b33          	and	x22,x24,x30
80001a58:	00570b93          	addi	x23,x14,5
80001a5c:	ff7be793          	ori	x15,x23,-9
80001a60:	01cbe6b3          	or	x13,x23,x28
80001a64:	012b8633          	add	x12,x23,x18
80001a68:	ff970393          	addi	x7,x14,-7
80001a6c:	0253f693          	andi	x13,x7,37
80001a70:	0063f293          	andi	x5,x7,6
80001a74:	41b387b3          	sub	x15,x7,x27
80001a78:	0173ec93          	ori	x25,x7,23
80001a7c:	fdb58913          	addi	x18,x11,-37
80001a80:	00e94b13          	xori	x22,x18,14
80001a84:	00697a33          	and	x20,x18,x6
80001a88:	00794f93          	xori	x31,x18,7
80001a8c:	41e90db3          	sub	x27,x18,x30
80001a90:	018975b3          	and	x11,x18,x24
80001a94:	017e4a13          	xori	x20,x28,23
80001a98:	025a4c93          	xori	x25,x20,37
80001a9c:	fead4513          	xori	x10,x26,-22
80001aa0:	01856b33          	or	x22,x10,x24
80001aa4:	01b573b3          	and	x7,x10,x27
80001aa8:	00854e13          	xori	x28,x10,8
80001aac:	01de0cb3          	add	x25,x28,x29
80001ab0:	ff3e4313          	xori	x6,x28,-13
80001ab4:	fede7f13          	andi	x30,x28,-19
80001ab8:	ff2d4f13          	xori	x30,x26,-14
80001abc:	015f7ab3          	and	x21,x30,x21
80001ac0:	01df6633          	or	x12,x30,x29
80001ac4:	002f7c13          	andi	x24,x30,2
80001ac8:	00df4cb3          	xor	x25,x30,x13
80001acc:	01d5cf13          	xori	x30,x11,29
80001ad0:	fe2f4313          	xori	x6,x30,-30
80001ad4:	40bf04b3          	sub	x9,x30,x11
80001ad8:	414f06b3          	sub	x13,x30,x20
80001adc:	ffef4e93          	xori	x29,x30,-2
80001ae0:	00df7bb3          	and	x23,x30,x13
80001ae4:	ff08e413          	ori	x8,x17,-16
80001ae8:	018402b3          	add	x5,x8,x24
80001aec:	01e56593          	ori	x11,x10,30
80001af0:	0075fb33          	and	x22,x11,x7
80001af4:	01a58f93          	addi	x31,x11,26
80001af8:	ffb6ed13          	ori	x26,x13,-5
80001afc:	015d44b3          	xor	x9,x26,x21
80001b00:	01dd66b3          	or	x13,x26,x29
80001b04:	006d67b3          	or	x15,x26,x6
80001b08:	00a9e413          	ori	x8,x19,10
80001b0c:	01946cb3          	or	x25,x8,x25
80001b10:	fe747493          	andi	x9,x8,-25
80001b14:	01347933          	and	x18,x8,x19
80001b18:	02440693          	addi	x13,x8,36
80001b1c:	fde9ec13          	ori	x24,x19,-34
80001b20:	018c0cb3          	add	x25,x24,x24
80001b24:	018c4633          	xor	x12,x24,x24
80001b28:	001c6e93          	ori	x29,x24,1
80001b2c:	00dc0b13          	addi	x22,x24,13
80001b30:	405c0333          	sub	x6,x24,x5
80001b34:	fd84f313          	andi	x6,x9,-40
80001b38:	00737d33          	and	x26,x6,x7
80001b3c:	01b47293          	andi	x5,x8,27
80001b40:	ff328793          	addi	x15,x5,-13
80001b44:	0082edb3          	or	x27,x5,x8
80001b48:	fdba7b93          	andi	x23,x20,-37
80001b4c:	00bbea93          	ori	x21,x23,11
80001b50:	017b8b33          	add	x22,x23,x23
80001b54:	01abceb3          	xor	x29,x23,x26
80001b58:	fe657893          	andi	x17,x10,-26
80001b5c:	00f8c933          	xor	x18,x17,x15
80001b60:	fe288f13          	addi	x30,x17,-30
80001b64:	00c8f3b3          	and	x7,x17,x12
80001b68:	fe48cf13          	xori	x30,x17,-28
80001b6c:	01177b13          	andi	x22,x14,17
80001b70:	009b65b3          	or	x11,x22,x9
80001b74:	010b7613          	andi	x12,x22,16
80001b78:	416b02b3          	sub	x5,x22,x22
80001b7c:	01ab6833          	or	x16,x22,x26
80001b80:	41fb03b3          	sub	x7,x22,x31

80001b84 <romromrom>:
80001b84:	00400293          	addi	x5,x0,4

80001b88 <loop1>:
80001b88:	00500863          	beq	x0,x5,80001b98 <beq00>
80001b8c:	fff28293          	addi	x5,x5,-1
80001b90:	00000013          	addi	x0,x0,0
80001b94:	ff5ff06f          	jal	x0,80001b88 <loop1>

80001b98 <beq00>:
80001b98:	00100093          	addi	x1,x0,1
80001b9c:	00200113          	addi	x2,x0,2
80001ba0:	00300193          	addi	x3,x0,3
80001ba4:	00400213          	addi	x4,x0,4
80001ba8:	00500293          	addi	x5,x0,5
80001bac:	00600313          	addi	x6,x0,6
80001bb0:	00700393          	addi	x7,x0,7
80001bb4:	00800413          	addi	x8,x0,8
80001bb8:	00900493          	addi	x9,x0,9
80001bbc:	00a00513          	addi	x10,x0,10
80001bc0:	00b00593          	addi	x11,x0,11
80001bc4:	00c00613          	addi	x12,x0,12
80001bc8:	00d00693          	addi	x13,x0,13
80001bcc:	00e00713          	addi	x14,x0,14
80001bd0:	00f00793          	addi	x15,x0,15
80001bd4:	01000813          	addi	x16,x0,16
80001bd8:	01100893          	addi	x17,x0,17
80001bdc:	01200913          	addi	x18,x0,18
80001be0:	01300993          	addi	x19,x0,19
80001be4:	01400a13          	addi	x20,x0,20
80001be8:	01500a93          	addi	x21,x0,21
80001bec:	01600b13          	addi	x22,x0,22
80001bf0:	01700b93          	addi	x23,x0,23
80001bf4:	01800c13          	addi	x24,x0,24
80001bf8:	01900c93          	addi	x25,x0,25
80001bfc:	01a00d13          	addi	x26,x0,26
80001c00:	01b00d93          	addi	x27,x0,27
80001c04:	01c00e13          	addi	x28,x0,28
80001c08:	01d00e93          	addi	x29,x0,29
80001c0c:	01e00f13          	addi	x30,x0,30
80001c10:	01f00f93          	addi	x31,x0,31
80001c14:	011e0b93          	addi	x23,x28,17
80001c18:	01cbfc33          	and	x24,x23,x28
80001c1c:	017b63b3          	or	x7,x22,x23
80001c20:	412b89b3          	sub	x19,x23,x18
80001c24:	00400093          	addi	x1,x0,4
80001c28:	fff00113          	addi	x2,x0,-1
80001c2c:	00200193          	addi	x3,x0,2
80001c30:	0020a213          	slti	x4,x1,2
80001c34:	00112213          	slti	x4,x2,1
80001c38:	0020b213          	sltiu	x4,x1,2
80001c3c:	00113213          	sltiu	x4,x2,1
80001c40:	0070c213          	xori	x4,x1,7
80001c44:	0010c213          	xori	x4,x1,1
80001c48:	0070e213          	ori	x4,x1,7
80001c4c:	0010e213          	ori	x4,x1,1
80001c50:	0070f213          	andi	x4,x1,7
80001c54:	0010f213          	andi	x4,x1,1
80001c58:	00309213          	slli	x4,x1,0x3
80001c5c:	00385213          	srli	x4,x16,0x3
80001c60:	4048d213          	srai	x4,x17,0x4
80001c64:	001102b3          	add	x5,x2,x1
80001c68:	402082b3          	sub	x5,x1,x2
80001c6c:	003092b3          	sll	x5,x1,x3
80001c70:	0020a2b3          	slt	x5,x1,x2
80001c74:	001122b3          	slt	x5,x2,x1
80001c78:	0020b2b3          	sltu	x5,x1,x2
80001c7c:	001132b3          	sltu	x5,x2,x1
80001c80:	0020c2b3          	xor	x5,x1,x2
80001c84:	0032d2b3          	srl	x5,x5,x3
80001c88:	4032d2b3          	sra	x5,x5,x3
80001c8c:	0020e2b3          	or	x5,x1,x2
80001c90:	0020f2b3          	and	x5,x1,x2
80001c94:	00000397          	auipc	x7,0x0
80001c98:	010000ef          	jal	x1,80001ca8 <jal1>
80001c9c:	06400093          	addi	x1,x0,100
80001ca0:	f9c00113          	addi	x2,x0,-100
80001ca4:	0c800193          	addi	x3,x0,200

80001ca8 <jal1>:
80001ca8:	01700093          	addi	x1,x0,23
80001cac:	fe600113          	addi	x2,x0,-26
80001cb0:	03100193          	addi	x3,x0,49
80001cb4:	0100046f          	jal	x8,80001cc4 <jalr1>
80001cb8:	02900093          	addi	x1,x0,41
80001cbc:	fd600113          	addi	x2,x0,-42
80001cc0:	05300193          	addi	x3,x0,83

80001cc4 <jalr1>:
80001cc4:	00b00093          	addi	x1,x0,11
80001cc8:	ff400113          	addi	x2,x0,-12
80001ccc:	ff300193          	addi	x3,x0,-13
80001cd0:	00400093          	addi	x1,x0,4
80001cd4:	fff00113          	addi	x2,x0,-1
80001cd8:	00200193          	addi	x3,x0,2

80001cdc <init>:
80001cdc:	001100b3          	add	x1,x2,x1
80001ce0:	40208233          	sub	x4,x1,x2
80001ce4:	003092b3          	sll	x5,x1,x3
80001ce8:	0020a333          	slt	x6,x1,x2
80001cec:	001123b3          	slt	x7,x2,x1
80001cf0:	0020b433          	sltu	x8,x1,x2
80001cf4:	001134b3          	sltu	x9,x2,x1
80001cf8:	0020c533          	xor	x10,x1,x2
80001cfc:	0032d5b3          	srl	x11,x5,x3
80001d00:	4032d633          	sra	x12,x5,x3
80001d04:	0020e6b3          	or	x13,x1,x2
80001d08:	0020f733          	and	x14,x1,x2
80001d0c:	fc2098e3          	bne	x1,x2,80001cdc <init>
80001d10:	00208863          	beq	x1,x2,80001d20 <beq1>
80001d14:	00100093          	addi	x1,x0,1
80001d18:	00200113          	addi	x2,x0,2
80001d1c:	00300193          	addi	x3,x0,3

80001d20 <beq1>:
80001d20:	0020a313          	slti	x6,x1,2
80001d24:	00112393          	slti	x7,x2,1
80001d28:	0020b413          	sltiu	x8,x1,2
80001d2c:	00113493          	sltiu	x9,x2,1
80001d30:	0070c513          	xori	x10,x1,7
80001d34:	0010c593          	xori	x11,x1,1
80001d38:	0070e613          	ori	x12,x1,7
80001d3c:	0010e693          	ori	x13,x1,1
80001d40:	0070f713          	andi	x14,x1,7
80001d44:	0010f793          	andi	x15,x1,1
80001d48:	00309813          	slli	x16,x1,0x3
80001d4c:	00385893          	srli	x17,x16,0x3
80001d50:	4048d913          	srai	x18,x17,0x4
80001d54:	0230c463          	blt	x1,x3,80001d7c <blt1>
80001d58:	2d100093          	addi	x1,x0,721
80001d5c:	20a00113          	addi	x2,x0,522
80001d60:	1bb00193          	addi	x3,x0,443
80001d64:	15700093          	addi	x1,x0,343
80001d68:	0f500113          	addi	x2,x0,245
80001d6c:	0a300193          	addi	x3,x0,163
80001d70:	30a00093          	addi	x1,x0,778
80001d74:	38200113          	addi	x2,x0,898
80001d78:	30b00193          	addi	x3,x0,779

80001d7c <blt1>:
80001d7c:	0211d463          	bge	x3,x1,80001da4 <bge1>
80001d80:	fff00093          	addi	x1,x0,-1
80001d84:	ffe00113          	addi	x2,x0,-2
80001d88:	ffd00193          	addi	x3,x0,-3
80001d8c:	ffc00093          	addi	x1,x0,-4
80001d90:	ffb00113          	addi	x2,x0,-5
80001d94:	ffa00193          	addi	x3,x0,-6
80001d98:	ff900093          	addi	x1,x0,-7
80001d9c:	ff800113          	addi	x2,x0,-8
80001da0:	ff700193          	addi	x3,x0,-9

80001da4 <bge1>:
80001da4:	02a2f463          	bgeu	x5,x10,80001dcc <bgeu1>
80001da8:	06500093          	addi	x1,x0,101
80001dac:	0e100113          	addi	x2,x0,225
80001db0:	15900193          	addi	x3,x0,345
80001db4:	1de00093          	addi	x1,x0,478
80001db8:	23800113          	addi	x2,x0,568
80001dbc:	28500193          	addi	x3,x0,645
80001dc0:	31300093          	addi	x1,x0,787
80001dc4:	35600113          	addi	x2,x0,854
80001dc8:	39800193          	addi	x3,x0,920

80001dcc <bgeu1>:
80001dcc:	02556463          	bltu	x10,x5,80001df4 <bltu1>
80001dd0:	00b00093          	addi	x1,x0,11
80001dd4:	01600113          	addi	x2,x0,22
80001dd8:	02100193          	addi	x3,x0,33
80001ddc:	02c00093          	addi	x1,x0,44
80001de0:	03700113          	addi	x2,x0,55
80001de4:	04200193          	addi	x3,x0,66
80001de8:	02f00093          	addi	x1,x0,47
80001dec:	05800113          	addi	x2,x0,88
80001df0:	06300193          	addi	x3,x0,99

80001df4 <bltu1>:
80001df4:	00000013          	addi	x0,x0,0
80001df8:	2d00006f          	jal	x0,800020c8 <inf_loop>
